
kernel:     file format elf32-i386


Disassembly of section .text:

00100000 <binit>:
// bufhead->tail is least recently used.
struct buf bufhead;

void
binit(void)
{
  100000:	55                   	push   %ebp
  100001:	89 e5                	mov    %esp,%ebp
  100003:	83 ec 18             	sub    $0x18,%esp
  struct buf *b;

  initlock(&buf_table_lock, "buf_table");
  100006:	c7 44 24 04 20 60 10 	movl   $0x106020,0x4(%esp)
  10000d:	00 
  10000e:	c7 04 24 a0 8f 10 00 	movl   $0x108fa0,(%esp)
  100015:	e8 d6 3d 00 00       	call   103df0 <initlock>
// bufhead->next is most recently used.
// bufhead->tail is least recently used.
struct buf bufhead;

void
binit(void)
  10001a:	ba 80 78 10 00       	mov    $0x107880,%edx
  initlock(&buf_table_lock, "buf_table");

  // Create linked list of buffers
  bufhead.prev = &bufhead;
  bufhead.next = &bufhead;
  for(b = buf; b < buf+NBUF; b++){
  10001f:	b8 a0 7a 10 00       	mov    $0x107aa0,%eax
  struct buf *b;

  initlock(&buf_table_lock, "buf_table");

  // Create linked list of buffers
  bufhead.prev = &bufhead;
  100024:	c7 05 8c 78 10 00 80 	movl   $0x107880,0x10788c
  10002b:	78 10 00 
  10002e:	eb 04                	jmp    100034 <binit+0x34>
  bufhead.next = &bufhead;
  for(b = buf; b < buf+NBUF; b++){
  100030:	89 c2                	mov    %eax,%edx
  100032:	89 c8                	mov    %ecx,%eax
  100034:	8d 88 18 02 00 00    	lea    0x218(%eax),%ecx
  10003a:	81 f9 90 8f 10 00    	cmp    $0x108f90,%ecx
    b->next = bufhead.next;
    b->prev = &bufhead;
  100040:	c7 40 0c 80 78 10 00 	movl   $0x107880,0xc(%eax)

  // Create linked list of buffers
  bufhead.prev = &bufhead;
  bufhead.next = &bufhead;
  for(b = buf; b < buf+NBUF; b++){
    b->next = bufhead.next;
  100047:	89 50 10             	mov    %edx,0x10(%eax)
    b->prev = &bufhead;
    bufhead.next->prev = b;
  10004a:	89 42 0c             	mov    %eax,0xc(%edx)
  initlock(&buf_table_lock, "buf_table");

  // Create linked list of buffers
  bufhead.prev = &bufhead;
  bufhead.next = &bufhead;
  for(b = buf; b < buf+NBUF; b++){
  10004d:	75 e1                	jne    100030 <binit+0x30>
  10004f:	c7 05 90 78 10 00 78 	movl   $0x108d78,0x107890
  100056:	8d 10 00 
    b->next = bufhead.next;
    b->prev = &bufhead;
    bufhead.next->prev = b;
    bufhead.next = b;
  }
}
  100059:	c9                   	leave  
  10005a:	c3                   	ret    
  10005b:	90                   	nop
  10005c:	8d 74 26 00          	lea    0x0(%esi,%eiz,1),%esi

00100060 <bread>:
}

// Return a B_BUSY buf with the contents of the indicated disk sector.
struct buf*
bread(uint dev, uint sector)
{
  100060:	55                   	push   %ebp
  100061:	89 e5                	mov    %esp,%ebp
  100063:	57                   	push   %edi
  100064:	56                   	push   %esi
  100065:	53                   	push   %ebx
  100066:	83 ec 1c             	sub    $0x1c,%esp
  100069:	8b 75 08             	mov    0x8(%ebp),%esi
  10006c:	8b 7d 0c             	mov    0xc(%ebp),%edi
static struct buf*
bget(uint dev, uint sector)
{
  struct buf *b;

  acquire(&buf_table_lock);
  10006f:	c7 04 24 a0 8f 10 00 	movl   $0x108fa0,(%esp)
  100076:	e8 75 3e 00 00       	call   103ef0 <acquire>

 loop:
  // Try for cached block.
  for(b = bufhead.next; b != &bufhead; b = b->next){
  10007b:	8b 1d 90 78 10 00    	mov    0x107890,%ebx
  100081:	81 fb 80 78 10 00    	cmp    $0x107880,%ebx
  100087:	75 12                	jne    10009b <bread+0x3b>
  100089:	eb 3d                	jmp    1000c8 <bread+0x68>
  10008b:	90                   	nop
  10008c:	8d 74 26 00          	lea    0x0(%esi,%eiz,1),%esi
  100090:	8b 5b 10             	mov    0x10(%ebx),%ebx
  100093:	81 fb 80 78 10 00    	cmp    $0x107880,%ebx
  100099:	74 2d                	je     1000c8 <bread+0x68>
    if((b->flags & (B_BUSY|B_VALID)) &&
  10009b:	8b 03                	mov    (%ebx),%eax
  10009d:	a8 03                	test   $0x3,%al
  10009f:	74 ef                	je     100090 <bread+0x30>
  1000a1:	3b 73 04             	cmp    0x4(%ebx),%esi
  1000a4:	75 ea                	jne    100090 <bread+0x30>
       b->dev == dev && b->sector == sector){
  1000a6:	3b 7b 08             	cmp    0x8(%ebx),%edi
  1000a9:	75 e5                	jne    100090 <bread+0x30>
      if(b->flags & B_BUSY){
  1000ab:	a8 01                	test   $0x1,%al
  1000ad:	8d 76 00             	lea    0x0(%esi),%esi
  1000b0:	74 71                	je     100123 <bread+0xc3>
        sleep(buf, &buf_table_lock);
  1000b2:	c7 44 24 04 a0 8f 10 	movl   $0x108fa0,0x4(%esp)
  1000b9:	00 
  1000ba:	c7 04 24 a0 7a 10 00 	movl   $0x107aa0,(%esp)
  1000c1:	e8 1a 38 00 00       	call   1038e0 <sleep>
  1000c6:	eb b3                	jmp    10007b <bread+0x1b>
      return b;
    }
  }

  // Allocate fresh block.
  for(b = bufhead.prev; b != &bufhead; b = b->prev){
  1000c8:	8b 1d 8c 78 10 00    	mov    0x10788c,%ebx
  1000ce:	81 fb 80 78 10 00    	cmp    $0x107880,%ebx
  1000d4:	75 0d                	jne    1000e3 <bread+0x83>
  1000d6:	eb 3f                	jmp    100117 <bread+0xb7>
  1000d8:	8b 5b 0c             	mov    0xc(%ebx),%ebx
  1000db:	81 fb 80 78 10 00    	cmp    $0x107880,%ebx
  1000e1:	74 34                	je     100117 <bread+0xb7>
    if((b->flags & B_BUSY) == 0){
  1000e3:	f6 03 01             	testb  $0x1,(%ebx)
  1000e6:	75 f0                	jne    1000d8 <bread+0x78>
      b->flags = B_BUSY;
  1000e8:	c7 03 01 00 00 00    	movl   $0x1,(%ebx)
      b->dev = dev;
  1000ee:	89 73 04             	mov    %esi,0x4(%ebx)
      b->sector = sector;
  1000f1:	89 7b 08             	mov    %edi,0x8(%ebx)
      release(&buf_table_lock);
  1000f4:	c7 04 24 a0 8f 10 00 	movl   $0x108fa0,(%esp)
  1000fb:	e8 e0 3e 00 00       	call   103fe0 <release>
bread(uint dev, uint sector)
{
  struct buf *b;

  b = bget(dev, sector);
  if(!(b->flags & B_VALID))
  100100:	f6 03 02             	testb  $0x2,(%ebx)
  100103:	75 08                	jne    10010d <bread+0xad>
    ide_rw(b);
  100105:	89 1c 24             	mov    %ebx,(%esp)
  100108:	e8 63 20 00 00       	call   102170 <ide_rw>
  return b;
}
  10010d:	83 c4 1c             	add    $0x1c,%esp
  100110:	89 d8                	mov    %ebx,%eax
  100112:	5b                   	pop    %ebx
  100113:	5e                   	pop    %esi
  100114:	5f                   	pop    %edi
  100115:	5d                   	pop    %ebp
  100116:	c3                   	ret    
      b->sector = sector;
      release(&buf_table_lock);
      return b;
    }
  }
  panic("bget: no buffers");
  100117:	c7 04 24 2a 60 10 00 	movl   $0x10602a,(%esp)
  10011e:	e8 dd 07 00 00       	call   100900 <panic>
       b->dev == dev && b->sector == sector){
      if(b->flags & B_BUSY){
        sleep(buf, &buf_table_lock);
        goto loop;
      }
      b->flags |= B_BUSY;
  100123:	83 c8 01             	or     $0x1,%eax
  100126:	89 03                	mov    %eax,(%ebx)
      release(&buf_table_lock);
  100128:	c7 04 24 a0 8f 10 00 	movl   $0x108fa0,(%esp)
  10012f:	e8 ac 3e 00 00       	call   103fe0 <release>
  100134:	eb ca                	jmp    100100 <bread+0xa0>
  100136:	8d 76 00             	lea    0x0(%esi),%esi
  100139:	8d bc 27 00 00 00 00 	lea    0x0(%edi,%eiz,1),%edi

00100140 <bwrite>:
}

// Write buf's contents to disk.  Must be locked.
void
bwrite(struct buf *b)
{
  100140:	55                   	push   %ebp
  100141:	89 e5                	mov    %esp,%ebp
  100143:	83 ec 18             	sub    $0x18,%esp
  100146:	8b 45 08             	mov    0x8(%ebp),%eax
  if((b->flags & B_BUSY) == 0)
  100149:	8b 10                	mov    (%eax),%edx
  10014b:	f6 c2 01             	test   $0x1,%dl
  10014e:	74 0e                	je     10015e <bwrite+0x1e>
    panic("bwrite");
  b->flags |= B_DIRTY;
  100150:	83 ca 04             	or     $0x4,%edx
  100153:	89 10                	mov    %edx,(%eax)
  ide_rw(b);
  100155:	89 45 08             	mov    %eax,0x8(%ebp)
}
  100158:	c9                   	leave  
bwrite(struct buf *b)
{
  if((b->flags & B_BUSY) == 0)
    panic("bwrite");
  b->flags |= B_DIRTY;
  ide_rw(b);
  100159:	e9 12 20 00 00       	jmp    102170 <ide_rw>
// Write buf's contents to disk.  Must be locked.
void
bwrite(struct buf *b)
{
  if((b->flags & B_BUSY) == 0)
    panic("bwrite");
  10015e:	c7 04 24 3b 60 10 00 	movl   $0x10603b,(%esp)
  100165:	e8 96 07 00 00       	call   100900 <panic>
  10016a:	8d b6 00 00 00 00    	lea    0x0(%esi),%esi

00100170 <brelse>:
}

// Release the buffer buf.
void
brelse(struct buf *b)
{
  100170:	55                   	push   %ebp
  100171:	89 e5                	mov    %esp,%ebp
  100173:	53                   	push   %ebx
  100174:	83 ec 14             	sub    $0x14,%esp
  100177:	8b 5d 08             	mov    0x8(%ebp),%ebx
  if((b->flags & B_BUSY) == 0)
  10017a:	f6 03 01             	testb  $0x1,(%ebx)
  10017d:	74 58                	je     1001d7 <brelse+0x67>
    panic("brelse");

  acquire(&buf_table_lock);
  10017f:	c7 04 24 a0 8f 10 00 	movl   $0x108fa0,(%esp)
  100186:	e8 65 3d 00 00       	call   103ef0 <acquire>

  b->next->prev = b->prev;
  10018b:	8b 43 10             	mov    0x10(%ebx),%eax
  10018e:	8b 53 0c             	mov    0xc(%ebx),%edx
  b->next = bufhead.next;
  b->prev = &bufhead;
  bufhead.next->prev = b;
  bufhead.next = b;

  b->flags &= ~B_BUSY;
  100191:	83 23 fe             	andl   $0xfffffffe,(%ebx)
  if((b->flags & B_BUSY) == 0)
    panic("brelse");

  acquire(&buf_table_lock);

  b->next->prev = b->prev;
  100194:	89 50 0c             	mov    %edx,0xc(%eax)
  b->prev->next = b->next;
  100197:	8b 53 0c             	mov    0xc(%ebx),%edx
  b->next = bufhead.next;
  b->prev = &bufhead;
  10019a:	c7 43 0c 80 78 10 00 	movl   $0x107880,0xc(%ebx)
    panic("brelse");

  acquire(&buf_table_lock);

  b->next->prev = b->prev;
  b->prev->next = b->next;
  1001a1:	89 42 10             	mov    %eax,0x10(%edx)
  b->next = bufhead.next;
  1001a4:	a1 90 78 10 00       	mov    0x107890,%eax
  1001a9:	89 43 10             	mov    %eax,0x10(%ebx)
  b->prev = &bufhead;
  bufhead.next->prev = b;
  1001ac:	a1 90 78 10 00       	mov    0x107890,%eax
  bufhead.next = b;
  1001b1:	89 1d 90 78 10 00    	mov    %ebx,0x107890

  b->next->prev = b->prev;
  b->prev->next = b->next;
  b->next = bufhead.next;
  b->prev = &bufhead;
  bufhead.next->prev = b;
  1001b7:	89 58 0c             	mov    %ebx,0xc(%eax)
  bufhead.next = b;

  b->flags &= ~B_BUSY;
  wakeup(buf);
  1001ba:	c7 04 24 a0 7a 10 00 	movl   $0x107aa0,(%esp)
  1001c1:	e8 ea 37 00 00       	call   1039b0 <wakeup>

  release(&buf_table_lock);
  1001c6:	c7 45 08 a0 8f 10 00 	movl   $0x108fa0,0x8(%ebp)
}
  1001cd:	83 c4 14             	add    $0x14,%esp
  1001d0:	5b                   	pop    %ebx
  1001d1:	5d                   	pop    %ebp
  bufhead.next = b;

  b->flags &= ~B_BUSY;
  wakeup(buf);

  release(&buf_table_lock);
  1001d2:	e9 09 3e 00 00       	jmp    103fe0 <release>
// Release the buffer buf.
void
brelse(struct buf *b)
{
  if((b->flags & B_BUSY) == 0)
    panic("brelse");
  1001d7:	c7 04 24 42 60 10 00 	movl   $0x106042,(%esp)
  1001de:	e8 1d 07 00 00       	call   100900 <panic>
  1001e3:	90                   	nop
  1001e4:	90                   	nop
  1001e5:	90                   	nop
  1001e6:	90                   	nop
  1001e7:	90                   	nop
  1001e8:	90                   	nop
  1001e9:	90                   	nop
  1001ea:	90                   	nop
  1001eb:	90                   	nop
  1001ec:	90                   	nop
  1001ed:	90                   	nop
  1001ee:	90                   	nop
  1001ef:	90                   	nop

001001f0 <console_read>:
  release(&input.lock);
}

int
console_read(struct inode *ip, char *dst, int n)
{
  1001f0:	55                   	push   %ebp
  1001f1:	89 e5                	mov    %esp,%ebp
  1001f3:	57                   	push   %edi
  1001f4:	56                   	push   %esi
  1001f5:	53                   	push   %ebx
  1001f6:	83 ec 2c             	sub    $0x2c,%esp
  1001f9:	8b 5d 10             	mov    0x10(%ebp),%ebx
  1001fc:	8b 75 08             	mov    0x8(%ebp),%esi
  uint target;
  int c;

  iunlock(ip);
  1001ff:	89 34 24             	mov    %esi,(%esp)
  100202:	e8 09 14 00 00       	call   101610 <iunlock>
  target = n;
  100207:	89 5d e4             	mov    %ebx,-0x1c(%ebp)
  acquire(&input.lock);
  10020a:	c7 04 24 e0 8f 10 00 	movl   $0x108fe0,(%esp)
  100211:	e8 da 3c 00 00       	call   103ef0 <acquire>
  while(n > 0){
  100216:	85 db                	test   %ebx,%ebx
  100218:	7f 26                	jg     100240 <console_read+0x50>
  10021a:	e9 c3 00 00 00       	jmp    1002e2 <console_read+0xf2>
  10021f:	90                   	nop
    while(input.r == input.w){
      if(cp->killed){
  100220:	e8 eb 33 00 00       	call   103610 <curproc>
  100225:	8b 40 1c             	mov    0x1c(%eax),%eax
  100228:	85 c0                	test   %eax,%eax
  10022a:	75 64                	jne    100290 <console_read+0xa0>
        release(&input.lock);
        ilock(ip);
        return -1;
      }
      sleep(&input.r, &input.lock);
  10022c:	c7 44 24 04 e0 8f 10 	movl   $0x108fe0,0x4(%esp)
  100233:	00 
  100234:	c7 04 24 94 90 10 00 	movl   $0x109094,(%esp)
  10023b:	e8 a0 36 00 00       	call   1038e0 <sleep>

  iunlock(ip);
  target = n;
  acquire(&input.lock);
  while(n > 0){
    while(input.r == input.w){
  100240:	a1 94 90 10 00       	mov    0x109094,%eax
  100245:	3b 05 98 90 10 00    	cmp    0x109098,%eax
  10024b:	74 d3                	je     100220 <console_read+0x30>
        ilock(ip);
        return -1;
      }
      sleep(&input.r, &input.lock);
    }
    c = input.buf[input.r++ % INPUT_BUF];
  10024d:	89 c1                	mov    %eax,%ecx
  10024f:	c1 f9 1f             	sar    $0x1f,%ecx
  100252:	c1 e9 19             	shr    $0x19,%ecx
  100255:	8d 14 08             	lea    (%eax,%ecx,1),%edx
  100258:	83 e2 7f             	and    $0x7f,%edx
  10025b:	29 ca                	sub    %ecx,%edx
  10025d:	0f b6 8a 14 90 10 00 	movzbl 0x109014(%edx),%ecx
  100264:	8d 78 01             	lea    0x1(%eax),%edi
  100267:	89 3d 94 90 10 00    	mov    %edi,0x109094
  10026d:	0f be d1             	movsbl %cl,%edx
    if(c == C('D')){  // EOF
  100270:	83 fa 04             	cmp    $0x4,%edx
  100273:	74 3c                	je     1002b1 <console_read+0xc1>
        // caller gets a 0-byte result.
        input.r--;
      }
      break;
    }
    *dst++ = c;
  100275:	8b 45 0c             	mov    0xc(%ebp),%eax
    --n;
  100278:	83 eb 01             	sub    $0x1,%ebx
    if(c == '\n')
  10027b:	83 fa 0a             	cmp    $0xa,%edx
        // caller gets a 0-byte result.
        input.r--;
      }
      break;
    }
    *dst++ = c;
  10027e:	88 08                	mov    %cl,(%eax)
    --n;
    if(c == '\n')
  100280:	74 39                	je     1002bb <console_read+0xcb>
  int c;

  iunlock(ip);
  target = n;
  acquire(&input.lock);
  while(n > 0){
  100282:	85 db                	test   %ebx,%ebx
  100284:	7e 35                	jle    1002bb <console_read+0xcb>
        // caller gets a 0-byte result.
        input.r--;
      }
      break;
    }
    *dst++ = c;
  100286:	83 45 0c 01          	addl   $0x1,0xc(%ebp)
  10028a:	eb b4                	jmp    100240 <console_read+0x50>
  10028c:	8d 74 26 00          	lea    0x0(%esi,%eiz,1),%esi
  target = n;
  acquire(&input.lock);
  while(n > 0){
    while(input.r == input.w){
      if(cp->killed){
        release(&input.lock);
  100290:	c7 04 24 e0 8f 10 00 	movl   $0x108fe0,(%esp)
  100297:	e8 44 3d 00 00       	call   103fe0 <release>
        ilock(ip);
  10029c:	89 34 24             	mov    %esi,(%esp)
  10029f:	e8 5c 12 00 00       	call   101500 <ilock>
  }
  release(&input.lock);
  ilock(ip);

  return target - n;
}
  1002a4:	83 c4 2c             	add    $0x2c,%esp
  while(n > 0){
    while(input.r == input.w){
      if(cp->killed){
        release(&input.lock);
        ilock(ip);
        return -1;
  1002a7:	b8 ff ff ff ff       	mov    $0xffffffff,%eax
  }
  release(&input.lock);
  ilock(ip);

  return target - n;
}
  1002ac:	5b                   	pop    %ebx
  1002ad:	5e                   	pop    %esi
  1002ae:	5f                   	pop    %edi
  1002af:	5d                   	pop    %ebp
  1002b0:	c3                   	ret    
      }
      sleep(&input.r, &input.lock);
    }
    c = input.buf[input.r++ % INPUT_BUF];
    if(c == C('D')){  // EOF
      if(n < target){
  1002b1:	39 5d e4             	cmp    %ebx,-0x1c(%ebp)
  1002b4:	76 05                	jbe    1002bb <console_read+0xcb>
        // Save ^D for next time, to make sure
        // caller gets a 0-byte result.
        input.r--;
  1002b6:	a3 94 90 10 00       	mov    %eax,0x109094
  1002bb:	8b 45 e4             	mov    -0x1c(%ebp),%eax
  1002be:	29 d8                	sub    %ebx,%eax
    *dst++ = c;
    --n;
    if(c == '\n')
      break;
  }
  release(&input.lock);
  1002c0:	89 45 e0             	mov    %eax,-0x20(%ebp)
  1002c3:	c7 04 24 e0 8f 10 00 	movl   $0x108fe0,(%esp)
  1002ca:	e8 11 3d 00 00       	call   103fe0 <release>
  ilock(ip);
  1002cf:	89 34 24             	mov    %esi,(%esp)
  1002d2:	e8 29 12 00 00       	call   101500 <ilock>
  1002d7:	8b 45 e0             	mov    -0x20(%ebp),%eax

  return target - n;
}
  1002da:	83 c4 2c             	add    $0x2c,%esp
  1002dd:	5b                   	pop    %ebx
  1002de:	5e                   	pop    %esi
  1002df:	5f                   	pop    %edi
  1002e0:	5d                   	pop    %ebp
  1002e1:	c3                   	ret    
  int c;

  iunlock(ip);
  target = n;
  acquire(&input.lock);
  while(n > 0){
  1002e2:	31 c0                	xor    %eax,%eax
  1002e4:	eb da                	jmp    1002c0 <console_read+0xd0>
  1002e6:	8d 76 00             	lea    0x0(%esi),%esi
  1002e9:	8d bc 27 00 00 00 00 	lea    0x0(%edi,%eiz,1),%edi

001002f0 <cons_putc>:
  crt[pos] = ' ' | 0x0700;
}

void
cons_putc(int c)
{
  1002f0:	55                   	push   %ebp
  1002f1:	89 e5                	mov    %esp,%ebp
  1002f3:	57                   	push   %edi
  1002f4:	56                   	push   %esi
  1002f5:	53                   	push   %ebx
  1002f6:	83 ec 1c             	sub    $0x1c,%esp
  1002f9:	8b 4d 08             	mov    0x8(%ebp),%ecx
  if(panicked){
  1002fc:	83 3d a0 77 10 00 00 	cmpl   $0x0,0x1077a0
  100303:	0f 85 d3 00 00 00    	jne    1003dc <cons_putc+0xec>
static inline uchar
inb(ushort port)
{
  uchar data;

  asm volatile("in %1,%0" : "=a" (data) : "d" (port));
  100309:	b8 79 03 00 00       	mov    $0x379,%eax
  10030e:	89 c2                	mov    %eax,%edx
  100310:	ec                   	in     (%dx),%al
static void
lpt_putc(int c)
{
  int i;

  for(i = 0; !(inb(LPTPORT+1) & 0x80) && i < 12800; i++)
  100311:	84 c0                	test   %al,%al
  100313:	bb 00 32 00 00       	mov    $0x3200,%ebx
  100318:	79 0b                	jns    100325 <cons_putc+0x35>
  10031a:	eb 0e                	jmp    10032a <cons_putc+0x3a>
  10031c:	8d 74 26 00          	lea    0x0(%esi,%eiz,1),%esi
  100320:	83 eb 01             	sub    $0x1,%ebx
  100323:	74 05                	je     10032a <cons_putc+0x3a>
  100325:	ec                   	in     (%dx),%al
  100326:	84 c0                	test   %al,%al
  100328:	79 f6                	jns    100320 <cons_putc+0x30>
    ;
  if(c == BACKSPACE)
  10032a:	81 f9 00 01 00 00    	cmp    $0x100,%ecx
  100330:	b8 08 00 00 00       	mov    $0x8,%eax
  100335:	0f 45 c1             	cmovne %ecx,%eax
}

static inline void
outb(ushort port, uchar data)
{
  asm volatile("out %0,%1" : : "a" (data), "d" (port));
  100338:	ba 78 03 00 00       	mov    $0x378,%edx
  10033d:	ee                   	out    %al,(%dx)
  10033e:	b8 0d 00 00 00       	mov    $0xd,%eax
  100343:	b2 7a                	mov    $0x7a,%dl
  100345:	ee                   	out    %al,(%dx)
  100346:	b8 08 00 00 00       	mov    $0x8,%eax
  10034b:	ee                   	out    %al,(%dx)
  10034c:	be d4 03 00 00       	mov    $0x3d4,%esi
  100351:	b8 0e 00 00 00       	mov    $0xe,%eax
  100356:	89 f2                	mov    %esi,%edx
  100358:	ee                   	out    %al,(%dx)
static inline uchar
inb(ushort port)
{
  uchar data;

  asm volatile("in %1,%0" : "=a" (data) : "d" (port));
  100359:	bf d5 03 00 00       	mov    $0x3d5,%edi
  10035e:	89 fa                	mov    %edi,%edx
  100360:	ec                   	in     (%dx),%al
{
  int pos;
  
  // Cursor position: col + 80*row.
  outb(CRTPORT, 14);
  pos = inb(CRTPORT+1) << 8;
  100361:	0f b6 d8             	movzbl %al,%ebx
}

static inline void
outb(ushort port, uchar data)
{
  asm volatile("out %0,%1" : : "a" (data), "d" (port));
  100364:	89 f2                	mov    %esi,%edx
  100366:	c1 e3 08             	shl    $0x8,%ebx
  100369:	b8 0f 00 00 00       	mov    $0xf,%eax
  10036e:	ee                   	out    %al,(%dx)
static inline uchar
inb(ushort port)
{
  uchar data;

  asm volatile("in %1,%0" : "=a" (data) : "d" (port));
  10036f:	89 fa                	mov    %edi,%edx
  100371:	ec                   	in     (%dx),%al
  outb(CRTPORT, 15);
  pos |= inb(CRTPORT+1);
  100372:	0f b6 c0             	movzbl %al,%eax
  100375:	09 c3                	or     %eax,%ebx

  if(c == '\n')
  100377:	83 f9 0a             	cmp    $0xa,%ecx
  10037a:	74 63                	je     1003df <cons_putc+0xef>
    pos += 80 - pos%80;
  else if(c == BACKSPACE){
  10037c:	81 f9 00 01 00 00    	cmp    $0x100,%ecx
  100382:	0f 84 b1 00 00 00    	je     100439 <cons_putc+0x149>
    if(pos > 0)
      crt[--pos] = ' ' | 0x0700;
  } else
    crt[pos++] = (c&0xff) | 0x0700;  // black on white
  100388:	66 81 e1 ff 00       	and    $0xff,%cx
  10038d:	80 cd 07             	or     $0x7,%ch
  100390:	66 89 8c 1b 00 80 0b 	mov    %cx,0xb8000(%ebx,%ebx,1)
  100397:	00 
  100398:	83 c3 01             	add    $0x1,%ebx
  
  if((pos/80) >= 24){  // Scroll up.
  10039b:	81 fb 7f 07 00 00    	cmp    $0x77f,%ebx
  1003a1:	7f 4e                	jg     1003f1 <cons_putc+0x101>
}

static inline void
outb(ushort port, uchar data)
{
  asm volatile("out %0,%1" : : "a" (data), "d" (port));
  1003a3:	b9 d4 03 00 00       	mov    $0x3d4,%ecx
  1003a8:	b8 0e 00 00 00       	mov    $0xe,%eax
  1003ad:	89 ca                	mov    %ecx,%edx
  1003af:	ee                   	out    %al,(%dx)
  1003b0:	be d5 03 00 00       	mov    $0x3d5,%esi
    pos -= 80;
    memset(crt+pos, 0, sizeof(crt[0])*(24*80 - pos));
  }
  
  outb(CRTPORT, 14);
  outb(CRTPORT+1, pos>>8);
  1003b5:	89 d8                	mov    %ebx,%eax
  1003b7:	c1 f8 08             	sar    $0x8,%eax
  1003ba:	89 f2                	mov    %esi,%edx
  1003bc:	ee                   	out    %al,(%dx)
  1003bd:	b8 0f 00 00 00       	mov    $0xf,%eax
  1003c2:	89 ca                	mov    %ecx,%edx
  1003c4:	ee                   	out    %al,(%dx)
  1003c5:	89 d8                	mov    %ebx,%eax
  1003c7:	89 f2                	mov    %esi,%edx
  1003c9:	ee                   	out    %al,(%dx)
  outb(CRTPORT, 15);
  outb(CRTPORT+1, pos);
  crt[pos] = ' ' | 0x0700;
  1003ca:	66 c7 84 1b 00 80 0b 	movw   $0x720,0xb8000(%ebx,%ebx,1)
  1003d1:	00 20 07 
      ;
  }

  lpt_putc(c);
  cga_putc(c);
}
  1003d4:	83 c4 1c             	add    $0x1c,%esp
  1003d7:	5b                   	pop    %ebx
  1003d8:	5e                   	pop    %esi
  1003d9:	5f                   	pop    %edi
  1003da:	5d                   	pop    %ebp
  1003db:	c3                   	ret    
}

static inline void
cli(void)
{
  asm volatile("cli");
  1003dc:	fa                   	cli    
  1003dd:	eb fe                	jmp    1003dd <cons_putc+0xed>
  pos = inb(CRTPORT+1) << 8;
  outb(CRTPORT, 15);
  pos |= inb(CRTPORT+1);

  if(c == '\n')
    pos += 80 - pos%80;
  1003df:	89 da                	mov    %ebx,%edx
  1003e1:	89 d8                	mov    %ebx,%eax
  1003e3:	b1 50                	mov    $0x50,%cl
  1003e5:	83 c3 50             	add    $0x50,%ebx
  1003e8:	c1 fa 1f             	sar    $0x1f,%edx
  1003eb:	f7 f9                	idiv   %ecx
  1003ed:	29 d3                	sub    %edx,%ebx
  1003ef:	eb aa                	jmp    10039b <cons_putc+0xab>
  } else
    crt[pos++] = (c&0xff) | 0x0700;  // black on white
  
  if((pos/80) >= 24){  // Scroll up.
    memmove(crt, crt+80, sizeof(crt[0])*23*80);
    pos -= 80;
  1003f1:	83 eb 50             	sub    $0x50,%ebx
      crt[--pos] = ' ' | 0x0700;
  } else
    crt[pos++] = (c&0xff) | 0x0700;  // black on white
  
  if((pos/80) >= 24){  // Scroll up.
    memmove(crt, crt+80, sizeof(crt[0])*23*80);
  1003f4:	c7 44 24 08 60 0e 00 	movl   $0xe60,0x8(%esp)
  1003fb:	00 
  1003fc:	c7 44 24 04 a0 80 0b 	movl   $0xb80a0,0x4(%esp)
  100403:	00 
  100404:	c7 04 24 00 80 0b 00 	movl   $0xb8000,(%esp)
  10040b:	e8 a0 3c 00 00       	call   1040b0 <memmove>
    pos -= 80;
    memset(crt+pos, 0, sizeof(crt[0])*(24*80 - pos));
  100410:	b8 80 07 00 00       	mov    $0x780,%eax
  100415:	29 d8                	sub    %ebx,%eax
  100417:	01 c0                	add    %eax,%eax
  100419:	89 44 24 08          	mov    %eax,0x8(%esp)
  10041d:	8d 84 1b 00 80 0b 00 	lea    0xb8000(%ebx,%ebx,1),%eax
  100424:	c7 44 24 04 00 00 00 	movl   $0x0,0x4(%esp)
  10042b:	00 
  10042c:	89 04 24             	mov    %eax,(%esp)
  10042f:	e8 ec 3b 00 00       	call   104020 <memset>
  100434:	e9 6a ff ff ff       	jmp    1003a3 <cons_putc+0xb3>
  pos |= inb(CRTPORT+1);

  if(c == '\n')
    pos += 80 - pos%80;
  else if(c == BACKSPACE){
    if(pos > 0)
  100439:	85 db                	test   %ebx,%ebx
  10043b:	0f 8e 62 ff ff ff    	jle    1003a3 <cons_putc+0xb3>
      crt[--pos] = ' ' | 0x0700;
  100441:	83 eb 01             	sub    $0x1,%ebx
  100444:	66 c7 84 1b 00 80 0b 	movw   $0x720,0xb8000(%ebx,%ebx,1)
  10044b:	00 20 07 
  10044e:	e9 48 ff ff ff       	jmp    10039b <cons_putc+0xab>
  100453:	8d b6 00 00 00 00    	lea    0x0(%esi),%esi
  100459:	8d bc 27 00 00 00 00 	lea    0x0(%edi,%eiz,1),%edi

00100460 <console_write>:
    release(&console_lock);
}

int
console_write(struct inode *ip, char *buf, int n)
{
  100460:	55                   	push   %ebp
  100461:	89 e5                	mov    %esp,%ebp
  100463:	57                   	push   %edi
  100464:	56                   	push   %esi
  100465:	53                   	push   %ebx
  100466:	83 ec 1c             	sub    $0x1c,%esp
  int i;

  iunlock(ip);
  100469:	8b 45 08             	mov    0x8(%ebp),%eax
    release(&console_lock);
}

int
console_write(struct inode *ip, char *buf, int n)
{
  10046c:	8b 75 10             	mov    0x10(%ebp),%esi
  10046f:	8b 7d 0c             	mov    0xc(%ebp),%edi
  int i;

  iunlock(ip);
  100472:	89 04 24             	mov    %eax,(%esp)
  100475:	e8 96 11 00 00       	call   101610 <iunlock>
  acquire(&console_lock);
  10047a:	c7 04 24 c0 77 10 00 	movl   $0x1077c0,(%esp)
  100481:	e8 6a 3a 00 00       	call   103ef0 <acquire>
  for(i = 0; i < n; i++)
  100486:	85 f6                	test   %esi,%esi
  100488:	7e 19                	jle    1004a3 <console_write+0x43>
  10048a:	31 db                	xor    %ebx,%ebx
  10048c:	8d 74 26 00          	lea    0x0(%esi,%eiz,1),%esi
    cons_putc(buf[i] & 0xff);
  100490:	0f b6 14 1f          	movzbl (%edi,%ebx,1),%edx
{
  int i;

  iunlock(ip);
  acquire(&console_lock);
  for(i = 0; i < n; i++)
  100494:	83 c3 01             	add    $0x1,%ebx
    cons_putc(buf[i] & 0xff);
  100497:	89 14 24             	mov    %edx,(%esp)
  10049a:	e8 51 fe ff ff       	call   1002f0 <cons_putc>
{
  int i;

  iunlock(ip);
  acquire(&console_lock);
  for(i = 0; i < n; i++)
  10049f:	39 de                	cmp    %ebx,%esi
  1004a1:	7f ed                	jg     100490 <console_write+0x30>
    cons_putc(buf[i] & 0xff);
  release(&console_lock);
  1004a3:	c7 04 24 c0 77 10 00 	movl   $0x1077c0,(%esp)
  1004aa:	e8 31 3b 00 00       	call   103fe0 <release>
  ilock(ip);
  1004af:	8b 45 08             	mov    0x8(%ebp),%eax
  1004b2:	89 04 24             	mov    %eax,(%esp)
  1004b5:	e8 46 10 00 00       	call   101500 <ilock>

  return n;
}
  1004ba:	83 c4 1c             	add    $0x1c,%esp
  1004bd:	89 f0                	mov    %esi,%eax
  1004bf:	5b                   	pop    %ebx
  1004c0:	5e                   	pop    %esi
  1004c1:	5f                   	pop    %edi
  1004c2:	5d                   	pop    %ebp
  1004c3:	c3                   	ret    
  1004c4:	8d b6 00 00 00 00    	lea    0x0(%esi),%esi
  1004ca:	8d bf 00 00 00 00    	lea    0x0(%edi),%edi

001004d0 <printint>:
  cga_putc(c);
}

void
printint(int xx, int base, int sgn)
{
  1004d0:	55                   	push   %ebp
  1004d1:	89 e5                	mov    %esp,%ebp
  1004d3:	57                   	push   %edi
  1004d4:	56                   	push   %esi
  1004d5:	53                   	push   %ebx
  1004d6:	83 ec 2c             	sub    $0x2c,%esp
  static char digits[] = "0123456789ABCDEF";
  char buf[16];
  int i = 0, neg = 0;
  uint x;

  if(sgn && xx < 0){
  1004d9:	8b 55 10             	mov    0x10(%ebp),%edx
  cga_putc(c);
}

void
printint(int xx, int base, int sgn)
{
  1004dc:	8b 45 08             	mov    0x8(%ebp),%eax
  1004df:	8b 75 0c             	mov    0xc(%ebp),%esi
  static char digits[] = "0123456789ABCDEF";
  char buf[16];
  int i = 0, neg = 0;
  uint x;

  if(sgn && xx < 0){
  1004e2:	85 d2                	test   %edx,%edx
  1004e4:	74 09                	je     1004ef <printint+0x1f>
  1004e6:	89 c2                	mov    %eax,%edx
  1004e8:	c1 ea 1f             	shr    $0x1f,%edx
  1004eb:	84 d2                	test   %dl,%dl
  1004ed:	75 51                	jne    100540 <printint+0x70>
void
printint(int xx, int base, int sgn)
{
  static char digits[] = "0123456789ABCDEF";
  char buf[16];
  int i = 0, neg = 0;
  1004ef:	31 ff                	xor    %edi,%edi
  1004f1:	31 c9                	xor    %ecx,%ecx
  1004f3:	8d 5d d8             	lea    -0x28(%ebp),%ebx
  1004f6:	66 90                	xchg   %ax,%ax
  } else {
    x = xx;
  }

  do{
    buf[i++] = digits[x % base];
  1004f8:	31 d2                	xor    %edx,%edx
  1004fa:	f7 f6                	div    %esi
  1004fc:	0f b6 92 79 60 10 00 	movzbl 0x106079(%edx),%edx
  100503:	88 14 0b             	mov    %dl,(%ebx,%ecx,1)
  100506:	83 c1 01             	add    $0x1,%ecx
  }while((x /= base) != 0);
  100509:	85 c0                	test   %eax,%eax
  10050b:	75 eb                	jne    1004f8 <printint+0x28>
  if(neg)
  10050d:	85 ff                	test   %edi,%edi
  10050f:	74 08                	je     100519 <printint+0x49>
    buf[i++] = '-';
  100511:	c6 44 0d d8 2d       	movb   $0x2d,-0x28(%ebp,%ecx,1)
  100516:	83 c1 01             	add    $0x1,%ecx

  while(--i >= 0)
  100519:	8d 71 ff             	lea    -0x1(%ecx),%esi
  10051c:	8d 74 26 00          	lea    0x0(%esi,%eiz,1),%esi
    cons_putc(buf[i]);
  100520:	0f be 04 33          	movsbl (%ebx,%esi,1),%eax
  100524:	89 04 24             	mov    %eax,(%esp)
  100527:	e8 c4 fd ff ff       	call   1002f0 <cons_putc>
    buf[i++] = digits[x % base];
  }while((x /= base) != 0);
  if(neg)
    buf[i++] = '-';

  while(--i >= 0)
  10052c:	83 ee 01             	sub    $0x1,%esi
  10052f:	79 ef                	jns    100520 <printint+0x50>
    cons_putc(buf[i]);
}
  100531:	83 c4 2c             	add    $0x2c,%esp
  100534:	5b                   	pop    %ebx
  100535:	5e                   	pop    %esi
  100536:	5f                   	pop    %edi
  100537:	5d                   	pop    %ebp
  100538:	c3                   	ret    
  100539:	8d b4 26 00 00 00 00 	lea    0x0(%esi,%eiz,1),%esi
  int i = 0, neg = 0;
  uint x;

  if(sgn && xx < 0){
    neg = 1;
    x = 0 - xx;
  100540:	f7 d8                	neg    %eax
  char buf[16];
  int i = 0, neg = 0;
  uint x;

  if(sgn && xx < 0){
    neg = 1;
  100542:	bf 01 00 00 00       	mov    $0x1,%edi
  100547:	eb a8                	jmp    1004f1 <printint+0x21>
  100549:	8d b4 26 00 00 00 00 	lea    0x0(%esi,%eiz,1),%esi

00100550 <cprintf>:
}

// Print to the console. only understands %d, %x, %p, %s.
void
cprintf(char *fmt, ...)
{
  100550:	55                   	push   %ebp
  100551:	89 e5                	mov    %esp,%ebp
  100553:	57                   	push   %edi
  100554:	56                   	push   %esi
  100555:	53                   	push   %ebx
  100556:	83 ec 2c             	sub    $0x2c,%esp
  int i, c, state, locking;
  uint *argp;
  char *s;

  locking = use_console_lock;
  100559:	a1 a4 77 10 00       	mov    0x1077a4,%eax
  if(locking)
  10055e:	85 c0                	test   %eax,%eax
{
  int i, c, state, locking;
  uint *argp;
  char *s;

  locking = use_console_lock;
  100560:	89 45 e0             	mov    %eax,-0x20(%ebp)
  if(locking)
  100563:	0f 85 77 01 00 00    	jne    1006e0 <cprintf+0x190>
    acquire(&console_lock);

  argp = (uint*)(void*)&fmt + 1;
  state = 0;
  for(i = 0; fmt[i]; i++){
  100569:	8b 5d 08             	mov    0x8(%ebp),%ebx
  10056c:	0f b6 03             	movzbl (%ebx),%eax
  10056f:	84 c0                	test   %al,%al
  100571:	74 7d                	je     1005f0 <cprintf+0xa0>

  locking = use_console_lock;
  if(locking)
    acquire(&console_lock);

  argp = (uint*)(void*)&fmt + 1;
  100573:	8d 55 0c             	lea    0xc(%ebp),%edx
  state = 0;
  100576:	31 ff                	xor    %edi,%edi

  locking = use_console_lock;
  if(locking)
    acquire(&console_lock);

  argp = (uint*)(void*)&fmt + 1;
  100578:	89 55 e4             	mov    %edx,-0x1c(%ebp)
  10057b:	eb 26                	jmp    1005a3 <cprintf+0x53>
  10057d:	8d 76 00             	lea    0x0(%esi),%esi
  state = 0;
  for(i = 0; fmt[i]; i++){
    c = fmt[i] & 0xff;
    switch(state){
    case 0:
      if(c == '%')
  100580:	83 fe 25             	cmp    $0x25,%esi
  100583:	0f 84 87 00 00 00    	je     100610 <cprintf+0xc0>
        state = '%';
      else
        cons_putc(c);
  100589:	89 34 24             	mov    %esi,(%esp)
  10058c:	e8 5f fd ff ff       	call   1002f0 <cons_putc>
  100591:	8d b4 26 00 00 00 00 	lea    0x0(%esi,%eiz,1),%esi
  if(locking)
    acquire(&console_lock);

  argp = (uint*)(void*)&fmt + 1;
  state = 0;
  for(i = 0; fmt[i]; i++){
  100598:	0f b6 43 01          	movzbl 0x1(%ebx),%eax
  10059c:	83 c3 01             	add    $0x1,%ebx
  10059f:	84 c0                	test   %al,%al
  1005a1:	74 4d                	je     1005f0 <cprintf+0xa0>
    c = fmt[i] & 0xff;
    switch(state){
  1005a3:	85 ff                	test   %edi,%edi
    acquire(&console_lock);

  argp = (uint*)(void*)&fmt + 1;
  state = 0;
  for(i = 0; fmt[i]; i++){
    c = fmt[i] & 0xff;
  1005a5:	0f b6 f0             	movzbl %al,%esi
    switch(state){
  1005a8:	74 d6                	je     100580 <cprintf+0x30>
  1005aa:	83 ff 25             	cmp    $0x25,%edi
  1005ad:	75 e9                	jne    100598 <cprintf+0x48>
      else
        cons_putc(c);
      break;
    
    case '%':
      switch(c){
  1005af:	83 fe 70             	cmp    $0x70,%esi
  1005b2:	74 6e                	je     100622 <cprintf+0xd2>
  1005b4:	7f 62                	jg     100618 <cprintf+0xc8>
  1005b6:	83 fe 25             	cmp    $0x25,%esi
  1005b9:	0f 84 09 01 00 00    	je     1006c8 <cprintf+0x178>
  1005bf:	83 fe 64             	cmp    $0x64,%esi
  1005c2:	0f 84 d0 00 00 00    	je     100698 <cprintf+0x148>
      case '%':
        cons_putc('%');
        break;
      default:
        // Print unknown % sequence to draw attention.
        cons_putc('%');
  1005c8:	c7 04 24 25 00 00 00 	movl   $0x25,(%esp)
        cons_putc(c);
        break;
      }
      state = 0;
  1005cf:	31 ff                	xor    %edi,%edi
      case '%':
        cons_putc('%');
        break;
      default:
        // Print unknown % sequence to draw attention.
        cons_putc('%');
  1005d1:	e8 1a fd ff ff       	call   1002f0 <cons_putc>
        cons_putc(c);
  1005d6:	89 34 24             	mov    %esi,(%esp)
  1005d9:	e8 12 fd ff ff       	call   1002f0 <cons_putc>
  if(locking)
    acquire(&console_lock);

  argp = (uint*)(void*)&fmt + 1;
  state = 0;
  for(i = 0; fmt[i]; i++){
  1005de:	0f b6 43 01          	movzbl 0x1(%ebx),%eax
  1005e2:	83 c3 01             	add    $0x1,%ebx
  1005e5:	84 c0                	test   %al,%al
  1005e7:	75 ba                	jne    1005a3 <cprintf+0x53>
  1005e9:	8d b4 26 00 00 00 00 	lea    0x0(%esi,%eiz,1),%esi
      state = 0;
      break;
    }
  }

  if(locking)
  1005f0:	8b 4d e0             	mov    -0x20(%ebp),%ecx
  1005f3:	85 c9                	test   %ecx,%ecx
  1005f5:	74 0c                	je     100603 <cprintf+0xb3>
    release(&console_lock);
  1005f7:	c7 04 24 c0 77 10 00 	movl   $0x1077c0,(%esp)
  1005fe:	e8 dd 39 00 00       	call   103fe0 <release>
}
  100603:	83 c4 2c             	add    $0x2c,%esp
  100606:	5b                   	pop    %ebx
  100607:	5e                   	pop    %esi
  100608:	5f                   	pop    %edi
  100609:	5d                   	pop    %ebp
  10060a:	c3                   	ret    
  10060b:	90                   	nop
  10060c:	8d 74 26 00          	lea    0x0(%esi,%eiz,1),%esi
  for(i = 0; fmt[i]; i++){
    c = fmt[i] & 0xff;
    switch(state){
    case 0:
      if(c == '%')
        state = '%';
  100610:	bf 25 00 00 00       	mov    $0x25,%edi
  100615:	eb 81                	jmp    100598 <cprintf+0x48>
  100617:	90                   	nop
      else
        cons_putc(c);
      break;
    
    case '%':
      switch(c){
  100618:	83 fe 73             	cmp    $0x73,%esi
  10061b:	74 33                	je     100650 <cprintf+0x100>
  10061d:	83 fe 78             	cmp    $0x78,%esi
  100620:	75 a6                	jne    1005c8 <cprintf+0x78>
      case 'd':
        printint(*argp++, 10, 1);
        break;
      case 'x':
      case 'p':
        printint(*argp++, 16, 0);
  100622:	8b 55 e4             	mov    -0x1c(%ebp),%edx
        // Print unknown % sequence to draw attention.
        cons_putc('%');
        cons_putc(c);
        break;
      }
      state = 0;
  100625:	31 ff                	xor    %edi,%edi
      case 'd':
        printint(*argp++, 10, 1);
        break;
      case 'x':
      case 'p':
        printint(*argp++, 16, 0);
  100627:	8b 02                	mov    (%edx),%eax
  100629:	83 c2 04             	add    $0x4,%edx
  10062c:	89 55 e4             	mov    %edx,-0x1c(%ebp)
  10062f:	c7 44 24 08 00 00 00 	movl   $0x0,0x8(%esp)
  100636:	00 
  100637:	c7 44 24 04 10 00 00 	movl   $0x10,0x4(%esp)
  10063e:	00 
  10063f:	89 04 24             	mov    %eax,(%esp)
  100642:	e8 89 fe ff ff       	call   1004d0 <printint>
        break;
  100647:	e9 4c ff ff ff       	jmp    100598 <cprintf+0x48>
  10064c:	8d 74 26 00          	lea    0x0(%esi,%eiz,1),%esi
      case 's':
        s = (char*)*argp++;
  100650:	8b 45 e4             	mov    -0x1c(%ebp),%eax
        if(s == 0)
          s = "(null)";
  100653:	ba 49 60 10 00       	mov    $0x106049,%edx
      case 'x':
      case 'p':
        printint(*argp++, 16, 0);
        break;
      case 's':
        s = (char*)*argp++;
  100658:	8b 30                	mov    (%eax),%esi
  10065a:	83 c0 04             	add    $0x4,%eax
  10065d:	89 45 e4             	mov    %eax,-0x1c(%ebp)
        if(s == 0)
          s = "(null)";
  100660:	85 f6                	test   %esi,%esi
  100662:	0f 44 f2             	cmove  %edx,%esi
        // Print unknown % sequence to draw attention.
        cons_putc('%');
        cons_putc(c);
        break;
      }
      state = 0;
  100665:	31 ff                	xor    %edi,%edi
        break;
      case 's':
        s = (char*)*argp++;
        if(s == 0)
          s = "(null)";
        for(; *s; s++)
  100667:	0f b6 06             	movzbl (%esi),%eax
  10066a:	84 c0                	test   %al,%al
  10066c:	0f 84 26 ff ff ff    	je     100598 <cprintf+0x48>
  100672:	8d b6 00 00 00 00    	lea    0x0(%esi),%esi
          cons_putc(*s);
  100678:	0f be c0             	movsbl %al,%eax
        break;
      case 's':
        s = (char*)*argp++;
        if(s == 0)
          s = "(null)";
        for(; *s; s++)
  10067b:	83 c6 01             	add    $0x1,%esi
          cons_putc(*s);
  10067e:	89 04 24             	mov    %eax,(%esp)
  100681:	e8 6a fc ff ff       	call   1002f0 <cons_putc>
        break;
      case 's':
        s = (char*)*argp++;
        if(s == 0)
          s = "(null)";
        for(; *s; s++)
  100686:	0f b6 06             	movzbl (%esi),%eax
  100689:	84 c0                	test   %al,%al
  10068b:	75 eb                	jne    100678 <cprintf+0x128>
        // Print unknown % sequence to draw attention.
        cons_putc('%');
        cons_putc(c);
        break;
      }
      state = 0;
  10068d:	31 ff                	xor    %edi,%edi
        for(; *s; s++)
          cons_putc(*s);
        break;
      case '%':
        cons_putc('%');
        break;
  10068f:	e9 04 ff ff ff       	jmp    100598 <cprintf+0x48>
  100694:	8d 74 26 00          	lea    0x0(%esi,%eiz,1),%esi
      break;
    
    case '%':
      switch(c){
      case 'd':
        printint(*argp++, 10, 1);
  100698:	8b 55 e4             	mov    -0x1c(%ebp),%edx
        // Print unknown % sequence to draw attention.
        cons_putc('%');
        cons_putc(c);
        break;
      }
      state = 0;
  10069b:	31 ff                	xor    %edi,%edi
      break;
    
    case '%':
      switch(c){
      case 'd':
        printint(*argp++, 10, 1);
  10069d:	8b 02                	mov    (%edx),%eax
  10069f:	83 c2 04             	add    $0x4,%edx
  1006a2:	89 55 e4             	mov    %edx,-0x1c(%ebp)
  1006a5:	c7 44 24 08 01 00 00 	movl   $0x1,0x8(%esp)
  1006ac:	00 
  1006ad:	c7 44 24 04 0a 00 00 	movl   $0xa,0x4(%esp)
  1006b4:	00 
  1006b5:	89 04 24             	mov    %eax,(%esp)
  1006b8:	e8 13 fe ff ff       	call   1004d0 <printint>
        break;
  1006bd:	e9 d6 fe ff ff       	jmp    100598 <cprintf+0x48>
  1006c2:	8d b6 00 00 00 00    	lea    0x0(%esi),%esi
          s = "(null)";
        for(; *s; s++)
          cons_putc(*s);
        break;
      case '%':
        cons_putc('%');
  1006c8:	c7 04 24 25 00 00 00 	movl   $0x25,(%esp)
        // Print unknown % sequence to draw attention.
        cons_putc('%');
        cons_putc(c);
        break;
      }
      state = 0;
  1006cf:	31 ff                	xor    %edi,%edi
          s = "(null)";
        for(; *s; s++)
          cons_putc(*s);
        break;
      case '%':
        cons_putc('%');
  1006d1:	e8 1a fc ff ff       	call   1002f0 <cons_putc>
  1006d6:	e9 bd fe ff ff       	jmp    100598 <cprintf+0x48>
  1006db:	90                   	nop
  1006dc:	8d 74 26 00          	lea    0x0(%esi,%eiz,1),%esi
  uint *argp;
  char *s;

  locking = use_console_lock;
  if(locking)
    acquire(&console_lock);
  1006e0:	c7 04 24 c0 77 10 00 	movl   $0x1077c0,(%esp)
  1006e7:	e8 04 38 00 00       	call   103ef0 <acquire>
  1006ec:	e9 78 fe ff ff       	jmp    100569 <cprintf+0x19>
  1006f1:	eb 0d                	jmp    100700 <console_intr>
  1006f3:	90                   	nop
  1006f4:	90                   	nop
  1006f5:	90                   	nop
  1006f6:	90                   	nop
  1006f7:	90                   	nop
  1006f8:	90                   	nop
  1006f9:	90                   	nop
  1006fa:	90                   	nop
  1006fb:	90                   	nop
  1006fc:	90                   	nop
  1006fd:	90                   	nop
  1006fe:	90                   	nop
  1006ff:	90                   	nop

00100700 <console_intr>:

#define C(x)  ((x)-'@')  // Control-x

void
console_intr(int (*getc)(void))
{
  100700:	55                   	push   %ebp
  100701:	89 e5                	mov    %esp,%ebp
  100703:	56                   	push   %esi
  100704:	53                   	push   %ebx
  100705:	83 ec 20             	sub    $0x20,%esp
  100708:	8b 5d 08             	mov    0x8(%ebp),%ebx
  int c;

  acquire(&input.lock);
  10070b:	c7 04 24 e0 8f 10 00 	movl   $0x108fe0,(%esp)
  100712:	e8 d9 37 00 00       	call   103ef0 <acquire>
  100717:	90                   	nop
  while((c = getc()) >= 0){
  100718:	ff d3                	call   *%ebx
  10071a:	85 c0                	test   %eax,%eax
  10071c:	0f 88 96 00 00 00    	js     1007b8 <console_intr+0xb8>
    switch(c){
  100722:	83 f8 10             	cmp    $0x10,%eax
  100725:	0f 84 a5 00 00 00    	je     1007d0 <console_intr+0xd0>
  10072b:	83 f8 15             	cmp    $0x15,%eax
  10072e:	66 90                	xchg   %ax,%ax
  100730:	0f 84 da 00 00 00    	je     100810 <console_intr+0x110>
  100736:	83 f8 08             	cmp    $0x8,%eax
  100739:	0f 84 a1 00 00 00    	je     1007e0 <console_intr+0xe0>
        input.e--;
        cons_putc(BACKSPACE);
      }
      break;
    default:
      if(c != 0 && input.e < input.r+INPUT_BUF){
  10073f:	85 c0                	test   %eax,%eax
  100741:	74 d5                	je     100718 <console_intr+0x18>
  100743:	8b 0d 94 90 10 00    	mov    0x109094,%ecx
  100749:	8b 15 9c 90 10 00    	mov    0x10909c,%edx
  10074f:	83 c1 7f             	add    $0x7f,%ecx
  100752:	39 d1                	cmp    %edx,%ecx
  100754:	7c c2                	jl     100718 <console_intr+0x18>
        input.buf[input.e++ % INPUT_BUF] = c;
  100756:	89 d6                	mov    %edx,%esi
  100758:	c1 fe 1f             	sar    $0x1f,%esi
  10075b:	c1 ee 19             	shr    $0x19,%esi
  10075e:	8d 0c 32             	lea    (%edx,%esi,1),%ecx
  100761:	83 c2 01             	add    $0x1,%edx
  100764:	83 e1 7f             	and    $0x7f,%ecx
  100767:	29 f1                	sub    %esi,%ecx
  100769:	88 81 14 90 10 00    	mov    %al,0x109014(%ecx)
        cons_putc(c);
  10076f:	89 04 24             	mov    %eax,(%esp)
  100772:	89 45 f4             	mov    %eax,-0xc(%ebp)
        cons_putc(BACKSPACE);
      }
      break;
    default:
      if(c != 0 && input.e < input.r+INPUT_BUF){
        input.buf[input.e++ % INPUT_BUF] = c;
  100775:	89 15 9c 90 10 00    	mov    %edx,0x10909c
        cons_putc(c);
  10077b:	e8 70 fb ff ff       	call   1002f0 <cons_putc>
        if(c == '\n' || c == C('D') || input.e == input.r+INPUT_BUF){
  100780:	8b 45 f4             	mov    -0xc(%ebp),%eax
  100783:	83 f8 04             	cmp    $0x4,%eax
  100786:	0f 84 e1 00 00 00    	je     10086d <console_intr+0x16d>
  10078c:	83 f8 0a             	cmp    $0xa,%eax
  10078f:	0f 84 d8 00 00 00    	je     10086d <console_intr+0x16d>
  100795:	8b 15 94 90 10 00    	mov    0x109094,%edx
  10079b:	a1 9c 90 10 00       	mov    0x10909c,%eax
  1007a0:	83 ea 80             	sub    $0xffffff80,%edx
  1007a3:	39 d0                	cmp    %edx,%eax
  1007a5:	0f 84 c7 00 00 00    	je     100872 <console_intr+0x172>
console_intr(int (*getc)(void))
{
  int c;

  acquire(&input.lock);
  while((c = getc()) >= 0){
  1007ab:	ff d3                	call   *%ebx
  1007ad:	85 c0                	test   %eax,%eax
  1007af:	0f 89 6d ff ff ff    	jns    100722 <console_intr+0x22>
  1007b5:	8d 76 00             	lea    0x0(%esi),%esi
        }
      }
      break;
    }
  }
  release(&input.lock);
  1007b8:	c7 45 08 e0 8f 10 00 	movl   $0x108fe0,0x8(%ebp)
}
  1007bf:	83 c4 20             	add    $0x20,%esp
  1007c2:	5b                   	pop    %ebx
  1007c3:	5e                   	pop    %esi
  1007c4:	5d                   	pop    %ebp
        }
      }
      break;
    }
  }
  release(&input.lock);
  1007c5:	e9 16 38 00 00       	jmp    103fe0 <release>
  1007ca:	8d b6 00 00 00 00    	lea    0x0(%esi),%esi

  acquire(&input.lock);
  while((c = getc()) >= 0){
    switch(c){
    case C('P'):  // Process listing.
      procdump();
  1007d0:	e8 3b 35 00 00       	call   103d10 <procdump>
      break;
  1007d5:	e9 3e ff ff ff       	jmp    100718 <console_intr+0x18>
  1007da:	8d b6 00 00 00 00    	lea    0x0(%esi),%esi
        input.e--;
        cons_putc(BACKSPACE);
      }
      break;
    case C('H'):  // Backspace
      if(input.e > input.w){
  1007e0:	a1 9c 90 10 00       	mov    0x10909c,%eax
  1007e5:	3b 05 98 90 10 00    	cmp    0x109098,%eax
  1007eb:	0f 8e 27 ff ff ff    	jle    100718 <console_intr+0x18>
        input.e--;
  1007f1:	83 e8 01             	sub    $0x1,%eax
  1007f4:	a3 9c 90 10 00       	mov    %eax,0x10909c
        cons_putc(BACKSPACE);
  1007f9:	c7 04 24 00 01 00 00 	movl   $0x100,(%esp)
  100800:	e8 eb fa ff ff       	call   1002f0 <cons_putc>
  100805:	e9 0e ff ff ff       	jmp    100718 <console_intr+0x18>
  10080a:	8d b6 00 00 00 00    	lea    0x0(%esi),%esi
    switch(c){
    case C('P'):  // Process listing.
      procdump();
      break;
    case C('U'):  // Kill line.
      while(input.e > input.w &&
  100810:	8b 0d 9c 90 10 00    	mov    0x10909c,%ecx
  100816:	39 0d 98 90 10 00    	cmp    %ecx,0x109098
  10081c:	7c 2e                	jl     10084c <console_intr+0x14c>
  10081e:	e9 f5 fe ff ff       	jmp    100718 <console_intr+0x18>
  100823:	90                   	nop
  100824:	8d 74 26 00          	lea    0x0(%esi,%eiz,1),%esi
            input.buf[(input.e-1) % INPUT_BUF] != '\n'){
        input.e--;
  100828:	89 0d 9c 90 10 00    	mov    %ecx,0x10909c
        cons_putc(BACKSPACE);
  10082e:	c7 04 24 00 01 00 00 	movl   $0x100,(%esp)
  100835:	e8 b6 fa ff ff       	call   1002f0 <cons_putc>
    switch(c){
    case C('P'):  // Process listing.
      procdump();
      break;
    case C('U'):  // Kill line.
      while(input.e > input.w &&
  10083a:	8b 0d 9c 90 10 00    	mov    0x10909c,%ecx
  100840:	3b 0d 98 90 10 00    	cmp    0x109098,%ecx
  100846:	0f 8e cc fe ff ff    	jle    100718 <console_intr+0x18>
            input.buf[(input.e-1) % INPUT_BUF] != '\n'){
  10084c:	83 e9 01             	sub    $0x1,%ecx
  10084f:	89 ca                	mov    %ecx,%edx
  100851:	c1 fa 1f             	sar    $0x1f,%edx
  100854:	c1 ea 19             	shr    $0x19,%edx
  100857:	8d 04 11             	lea    (%ecx,%edx,1),%eax
  10085a:	83 e0 7f             	and    $0x7f,%eax
  10085d:	29 d0                	sub    %edx,%eax
    switch(c){
    case C('P'):  // Process listing.
      procdump();
      break;
    case C('U'):  // Kill line.
      while(input.e > input.w &&
  10085f:	80 b8 14 90 10 00 0a 	cmpb   $0xa,0x109014(%eax)
  100866:	75 c0                	jne    100828 <console_intr+0x128>
  100868:	e9 ab fe ff ff       	jmp    100718 <console_intr+0x18>
      break;
    default:
      if(c != 0 && input.e < input.r+INPUT_BUF){
        input.buf[input.e++ % INPUT_BUF] = c;
        cons_putc(c);
        if(c == '\n' || c == C('D') || input.e == input.r+INPUT_BUF){
  10086d:	a1 9c 90 10 00       	mov    0x10909c,%eax
          input.w = input.e;
  100872:	a3 98 90 10 00       	mov    %eax,0x109098
          wakeup(&input.r);
  100877:	c7 04 24 94 90 10 00 	movl   $0x109094,(%esp)
  10087e:	e8 2d 31 00 00       	call   1039b0 <wakeup>
  100883:	e9 90 fe ff ff       	jmp    100718 <console_intr+0x18>
  100888:	90                   	nop
  100889:	8d b4 26 00 00 00 00 	lea    0x0(%esi,%eiz,1),%esi

00100890 <console_init>:
  return target - n;
}

void
console_init(void)
{
  100890:	55                   	push   %ebp
  100891:	89 e5                	mov    %esp,%ebp
  100893:	83 ec 18             	sub    $0x18,%esp
  initlock(&console_lock, "console");
  100896:	c7 44 24 04 50 60 10 	movl   $0x106050,0x4(%esp)
  10089d:	00 
  10089e:	c7 04 24 c0 77 10 00 	movl   $0x1077c0,(%esp)
  1008a5:	e8 46 35 00 00       	call   103df0 <initlock>
  initlock(&input.lock, "console input");
  1008aa:	c7 44 24 04 58 60 10 	movl   $0x106058,0x4(%esp)
  1008b1:	00 
  1008b2:	c7 04 24 e0 8f 10 00 	movl   $0x108fe0,(%esp)
  1008b9:	e8 32 35 00 00       	call   103df0 <initlock>

  devsw[CONSOLE].write = console_write;
  devsw[CONSOLE].read = console_read;
  use_console_lock = 1;

  pic_enable(IRQ_KBD);
  1008be:	c7 04 24 01 00 00 00 	movl   $0x1,(%esp)
console_init(void)
{
  initlock(&console_lock, "console");
  initlock(&input.lock, "console input");

  devsw[CONSOLE].write = console_write;
  1008c5:	c7 05 4c 9a 10 00 60 	movl   $0x100460,0x109a4c
  1008cc:	04 10 00 
  devsw[CONSOLE].read = console_read;
  1008cf:	c7 05 48 9a 10 00 f0 	movl   $0x1001f0,0x109a48
  1008d6:	01 10 00 
  use_console_lock = 1;
  1008d9:	c7 05 a4 77 10 00 01 	movl   $0x1,0x1077a4
  1008e0:	00 00 00 

  pic_enable(IRQ_KBD);
  1008e3:	e8 28 24 00 00       	call   102d10 <pic_enable>
  ioapic_enable(IRQ_KBD, 0);
  1008e8:	c7 44 24 04 00 00 00 	movl   $0x0,0x4(%esp)
  1008ef:	00 
  1008f0:	c7 04 24 01 00 00 00 	movl   $0x1,(%esp)
  1008f7:	e8 f4 19 00 00       	call   1022f0 <ioapic_enable>
}
  1008fc:	c9                   	leave  
  1008fd:	c3                   	ret    
  1008fe:	66 90                	xchg   %ax,%ax

00100900 <panic>:

void
panic(char *s)
{
  100900:	55                   	push   %ebp
  100901:	89 e5                	mov    %esp,%ebp
  100903:	56                   	push   %esi
  100904:	53                   	push   %ebx
  100905:	83 ec 40             	sub    $0x40,%esp
  int i;
  uint pcs[10];
  
  __asm __volatile("cli");
  use_console_lock = 0;
  100908:	c7 05 a4 77 10 00 00 	movl   $0x0,0x1077a4
  10090f:	00 00 00 
panic(char *s)
{
  int i;
  uint pcs[10];
  
  __asm __volatile("cli");
  100912:	fa                   	cli    
  use_console_lock = 0;
  cprintf("cpu%d: panic: ", cpu());
  100913:	e8 68 1e 00 00       	call   102780 <cpu>
  cprintf(s, 0);
  cprintf("\n", 0);
  getcallerpcs(&s, pcs);
  100918:	8d 75 d0             	lea    -0x30(%ebp),%esi
  for(i=0; i<10; i++)
  10091b:	31 db                	xor    %ebx,%ebx
  int i;
  uint pcs[10];
  
  __asm __volatile("cli");
  use_console_lock = 0;
  cprintf("cpu%d: panic: ", cpu());
  10091d:	c7 04 24 66 60 10 00 	movl   $0x106066,(%esp)
  100924:	89 44 24 04          	mov    %eax,0x4(%esp)
  100928:	e8 23 fc ff ff       	call   100550 <cprintf>
  cprintf(s, 0);
  10092d:	8b 45 08             	mov    0x8(%ebp),%eax
  100930:	c7 44 24 04 00 00 00 	movl   $0x0,0x4(%esp)
  100937:	00 
  100938:	89 04 24             	mov    %eax,(%esp)
  10093b:	e8 10 fc ff ff       	call   100550 <cprintf>
  cprintf("\n", 0);
  100940:	c7 44 24 04 00 00 00 	movl   $0x0,0x4(%esp)
  100947:	00 
  100948:	c7 04 24 b3 64 10 00 	movl   $0x1064b3,(%esp)
  10094f:	e8 fc fb ff ff       	call   100550 <cprintf>
  getcallerpcs(&s, pcs);
  100954:	8d 45 08             	lea    0x8(%ebp),%eax
  100957:	89 74 24 04          	mov    %esi,0x4(%esp)
  10095b:	89 04 24             	mov    %eax,(%esp)
  10095e:	e8 ad 34 00 00       	call   103e10 <getcallerpcs>
  100963:	90                   	nop
  100964:	8d 74 26 00          	lea    0x0(%esi,%eiz,1),%esi
  for(i=0; i<10; i++)
    cprintf(" %p", pcs[i]);
  100968:	8b 04 9e             	mov    (%esi,%ebx,4),%eax
  use_console_lock = 0;
  cprintf("cpu%d: panic: ", cpu());
  cprintf(s, 0);
  cprintf("\n", 0);
  getcallerpcs(&s, pcs);
  for(i=0; i<10; i++)
  10096b:	83 c3 01             	add    $0x1,%ebx
    cprintf(" %p", pcs[i]);
  10096e:	c7 04 24 75 60 10 00 	movl   $0x106075,(%esp)
  100975:	89 44 24 04          	mov    %eax,0x4(%esp)
  100979:	e8 d2 fb ff ff       	call   100550 <cprintf>
  use_console_lock = 0;
  cprintf("cpu%d: panic: ", cpu());
  cprintf(s, 0);
  cprintf("\n", 0);
  getcallerpcs(&s, pcs);
  for(i=0; i<10; i++)
  10097e:	83 fb 0a             	cmp    $0xa,%ebx
  100981:	75 e5                	jne    100968 <panic+0x68>
    cprintf(" %p", pcs[i]);
  panicked = 1; // freeze other CPU
  100983:	c7 05 a0 77 10 00 01 	movl   $0x1,0x1077a0
  10098a:	00 00 00 
  10098d:	eb fe                	jmp    10098d <panic+0x8d>
  10098f:	90                   	nop

00100990 <exec>:
#include "x86.h"
#include "elf.h"

int
exec(char *path, char **argv)
{
  100990:	55                   	push   %ebp
  100991:	89 e5                	mov    %esp,%ebp
  100993:	57                   	push   %edi
  100994:	56                   	push   %esi
  100995:	53                   	push   %ebx
  100996:	81 ec 9c 00 00 00    	sub    $0x9c,%esp
  uint sz, sp, argp;
  struct elfhdr elf;
  struct inode *ip;
  struct proghdr ph;

  if((ip = namei(path)) == 0)
  10099c:	8b 45 08             	mov    0x8(%ebp),%eax
  10099f:	89 04 24             	mov    %eax,(%esp)
  1009a2:	e8 99 15 00 00       	call   101f40 <namei>
  1009a7:	89 c3                	mov    %eax,%ebx
    return -1;
  1009a9:	b8 ff ff ff ff       	mov    $0xffffffff,%eax
  uint sz, sp, argp;
  struct elfhdr elf;
  struct inode *ip;
  struct proghdr ph;

  if((ip = namei(path)) == 0)
  1009ae:	85 db                	test   %ebx,%ebx
  1009b0:	0f 84 55 03 00 00    	je     100d0b <exec+0x37b>
    return -1;
  ilock(ip);
  1009b6:	89 1c 24             	mov    %ebx,(%esp)
  1009b9:	e8 42 0b 00 00       	call   101500 <ilock>
  // Compute memory size of new process.
  mem = 0;
  sz = 0;

  // Program segments.
  if(readi(ip, (char*)&elf, 0, sizeof(elf)) < sizeof(elf))
  1009be:	8d 45 94             	lea    -0x6c(%ebp),%eax
  1009c1:	c7 44 24 0c 34 00 00 	movl   $0x34,0xc(%esp)
  1009c8:	00 
  1009c9:	c7 44 24 08 00 00 00 	movl   $0x0,0x8(%esp)
  1009d0:	00 
  1009d1:	89 44 24 04          	mov    %eax,0x4(%esp)
  1009d5:	89 1c 24             	mov    %ebx,(%esp)
  1009d8:	e8 73 0f 00 00       	call   101950 <readi>
  1009dd:	83 f8 33             	cmp    $0x33,%eax
  1009e0:	0f 86 44 03 00 00    	jbe    100d2a <exec+0x39a>
    goto bad;
  if(elf.magic != ELF_MAGIC)
  1009e6:	81 7d 94 7f 45 4c 46 	cmpl   $0x464c457f,-0x6c(%ebp)
  1009ed:	0f 85 37 03 00 00    	jne    100d2a <exec+0x39a>
    goto bad;
  for(i=0, off=elf.phoff; i<elf.phnum; i++, off+=sizeof(ph)){
  1009f3:	66 83 7d c0 00       	cmpw   $0x0,-0x40(%ebp)
  1009f8:	8b 7d b0             	mov    -0x50(%ebp),%edi
  1009fb:	0f 84 69 03 00 00    	je     100d6a <exec+0x3da>
    return -1;
  ilock(ip);

  // Compute memory size of new process.
  mem = 0;
  sz = 0;
  100a01:	c7 45 84 00 00 00 00 	movl   $0x0,-0x7c(%ebp)
  // Program segments.
  if(readi(ip, (char*)&elf, 0, sizeof(elf)) < sizeof(elf))
    goto bad;
  if(elf.magic != ELF_MAGIC)
    goto bad;
  for(i=0, off=elf.phoff; i<elf.phnum; i++, off+=sizeof(ph)){
  100a08:	31 f6                	xor    %esi,%esi
  100a0a:	eb 12                	jmp    100a1e <exec+0x8e>
  100a0c:	8d 74 26 00          	lea    0x0(%esi,%eiz,1),%esi
  100a10:	0f b7 45 c0          	movzwl -0x40(%ebp),%eax
  100a14:	83 c6 01             	add    $0x1,%esi
  100a17:	39 f0                	cmp    %esi,%eax
  100a19:	7e 47                	jle    100a62 <exec+0xd2>
#include "defs.h"
#include "x86.h"
#include "elf.h"

int
exec(char *path, char **argv)
  100a1b:	83 c7 20             	add    $0x20,%edi
  if(readi(ip, (char*)&elf, 0, sizeof(elf)) < sizeof(elf))
    goto bad;
  if(elf.magic != ELF_MAGIC)
    goto bad;
  for(i=0, off=elf.phoff; i<elf.phnum; i++, off+=sizeof(ph)){
    if(readi(ip, (char*)&ph, off, sizeof(ph)) != sizeof(ph))
  100a1e:	8d 55 c8             	lea    -0x38(%ebp),%edx
  100a21:	c7 44 24 0c 20 00 00 	movl   $0x20,0xc(%esp)
  100a28:	00 
  100a29:	89 7c 24 08          	mov    %edi,0x8(%esp)
  100a2d:	89 54 24 04          	mov    %edx,0x4(%esp)
  100a31:	89 1c 24             	mov    %ebx,(%esp)
  100a34:	e8 17 0f 00 00       	call   101950 <readi>
  100a39:	83 f8 20             	cmp    $0x20,%eax
  100a3c:	0f 85 e8 02 00 00    	jne    100d2a <exec+0x39a>
      goto bad;
    if(ph.type != ELF_PROG_LOAD)
  100a42:	83 7d c8 01          	cmpl   $0x1,-0x38(%ebp)
  100a46:	75 c8                	jne    100a10 <exec+0x80>
      continue;
    if(ph.memsz < ph.filesz)
  100a48:	8b 45 dc             	mov    -0x24(%ebp),%eax
  100a4b:	3b 45 d8             	cmp    -0x28(%ebp),%eax
  100a4e:	0f 82 d6 02 00 00    	jb     100d2a <exec+0x39a>
      goto bad;
    sz += ph.memsz;
  100a54:	01 45 84             	add    %eax,-0x7c(%ebp)
  // Program segments.
  if(readi(ip, (char*)&elf, 0, sizeof(elf)) < sizeof(elf))
    goto bad;
  if(elf.magic != ELF_MAGIC)
    goto bad;
  for(i=0, off=elf.phoff; i<elf.phnum; i++, off+=sizeof(ph)){
  100a57:	83 c6 01             	add    $0x1,%esi
  100a5a:	0f b7 45 c0          	movzwl -0x40(%ebp),%eax
  100a5e:	39 f0                	cmp    %esi,%eax
  100a60:	7f b9                	jg     100a1b <exec+0x8b>
  100a62:	8b 7d 84             	mov    -0x7c(%ebp),%edi
  100a65:	81 c7 ff 1f 00 00    	add    $0x1fff,%edi
    sz += ph.memsz;
  }
  
  // Arguments.
  arglen = 0;
  for(argc=0; argv[argc]; argc++)
  100a6b:	8b 4d 0c             	mov    0xc(%ebp),%ecx
  100a6e:	8b 11                	mov    (%ecx),%edx
  100a70:	85 d2                	test   %edx,%edx
  100a72:	0f 84 ca 02 00 00    	je     100d42 <exec+0x3b2>
  100a78:	89 7d 84             	mov    %edi,-0x7c(%ebp)
  100a7b:	31 f6                	xor    %esi,%esi
  100a7d:	89 cf                	mov    %ecx,%edi
  100a7f:	89 5d 80             	mov    %ebx,-0x80(%ebp)
  100a82:	31 db                	xor    %ebx,%ebx
  100a84:	c7 85 7c ff ff ff 00 	movl   $0x0,-0x84(%ebp)
  100a8b:	00 00 00 
  100a8e:	66 90                	xchg   %ax,%ax
    arglen += strlen(argv[argc]) + 1;
  100a90:	89 14 24             	mov    %edx,(%esp)
    sz += ph.memsz;
  }
  
  // Arguments.
  arglen = 0;
  for(argc=0; argv[argc]; argc++)
  100a93:	83 c3 01             	add    $0x1,%ebx
    arglen += strlen(argv[argc]) + 1;
  100a96:	e8 75 37 00 00       	call   104210 <strlen>
    sz += ph.memsz;
  }
  
  // Arguments.
  arglen = 0;
  for(argc=0; argv[argc]; argc++)
  100a9b:	8b 14 9f             	mov    (%edi,%ebx,4),%edx
  100a9e:	89 d9                	mov    %ebx,%ecx
    arglen += strlen(argv[argc]) + 1;
  100aa0:	01 f0                	add    %esi,%eax
    sz += ph.memsz;
  }
  
  // Arguments.
  arglen = 0;
  for(argc=0; argv[argc]; argc++)
  100aa2:	85 d2                	test   %edx,%edx
    arglen += strlen(argv[argc]) + 1;
  100aa4:	8d 70 01             	lea    0x1(%eax),%esi
    sz += ph.memsz;
  }
  
  // Arguments.
  arglen = 0;
  for(argc=0; argv[argc]; argc++)
  100aa7:	75 e7                	jne    100a90 <exec+0x100>
  100aa9:	89 9d 7c ff ff ff    	mov    %ebx,-0x84(%ebp)
  100aaf:	8b 7d 84             	mov    -0x7c(%ebp),%edi
  100ab2:	83 c0 04             	add    $0x4,%eax
  100ab5:	8b 5d 80             	mov    -0x80(%ebp),%ebx
  100ab8:	83 e0 fc             	and    $0xfffffffc,%eax
  100abb:	89 85 78 ff ff ff    	mov    %eax,-0x88(%ebp)
  100ac1:	8d 44 88 04          	lea    0x4(%eax,%ecx,4),%eax
  100ac5:	89 8d 74 ff ff ff    	mov    %ecx,-0x8c(%ebp)

  // Stack.
  sz += PAGE;
  
  // Allocate program memory.
  sz = (sz+PAGE-1) & ~(PAGE-1);
  100acb:	01 f8                	add    %edi,%eax
  100acd:	25 00 f0 ff ff       	and    $0xfffff000,%eax
  100ad2:	89 45 80             	mov    %eax,-0x80(%ebp)
  mem = kalloc(sz);
  100ad5:	89 04 24             	mov    %eax,(%esp)
  100ad8:	e8 b3 19 00 00       	call   102490 <kalloc>
  if(mem == 0)
  100add:	85 c0                	test   %eax,%eax
  // Stack.
  sz += PAGE;
  
  // Allocate program memory.
  sz = (sz+PAGE-1) & ~(PAGE-1);
  mem = kalloc(sz);
  100adf:	89 45 84             	mov    %eax,-0x7c(%ebp)
  if(mem == 0)
  100ae2:	0f 84 42 02 00 00    	je     100d2a <exec+0x39a>
    goto bad;
  memset(mem, 0, sz);
  100ae8:	8b 4d 80             	mov    -0x80(%ebp),%ecx
  100aeb:	c7 44 24 04 00 00 00 	movl   $0x0,0x4(%esp)
  100af2:	00 
  100af3:	89 04 24             	mov    %eax,(%esp)
  100af6:	89 4c 24 08          	mov    %ecx,0x8(%esp)
  100afa:	e8 21 35 00 00       	call   104020 <memset>

  // Load program into memory.
  for(i=0, off=elf.phoff; i<elf.phnum; i++, off+=sizeof(ph)){
  100aff:	8b 7d b0             	mov    -0x50(%ebp),%edi
  100b02:	66 83 7d c0 00       	cmpw   $0x0,-0x40(%ebp)
  100b07:	0f 84 ac 00 00 00    	je     100bb9 <exec+0x229>
  100b0d:	31 f6                	xor    %esi,%esi
  100b0f:	eb 19                	jmp    100b2a <exec+0x19a>
  100b11:	8d b4 26 00 00 00 00 	lea    0x0(%esi,%eiz,1),%esi
  100b18:	0f b7 45 c0          	movzwl -0x40(%ebp),%eax
  100b1c:	83 c6 01             	add    $0x1,%esi
  100b1f:	39 f0                	cmp    %esi,%eax
  100b21:	0f 8e 92 00 00 00    	jle    100bb9 <exec+0x229>
#include "defs.h"
#include "x86.h"
#include "elf.h"

int
exec(char *path, char **argv)
  100b27:	83 c7 20             	add    $0x20,%edi
    goto bad;
  memset(mem, 0, sz);

  // Load program into memory.
  for(i=0, off=elf.phoff; i<elf.phnum; i++, off+=sizeof(ph)){
    if(readi(ip, (char*)&ph, off, sizeof(ph)) != sizeof(ph))
  100b2a:	8d 45 c8             	lea    -0x38(%ebp),%eax
  100b2d:	c7 44 24 0c 20 00 00 	movl   $0x20,0xc(%esp)
  100b34:	00 
  100b35:	89 7c 24 08          	mov    %edi,0x8(%esp)
  100b39:	89 44 24 04          	mov    %eax,0x4(%esp)
  100b3d:	89 1c 24             	mov    %ebx,(%esp)
  100b40:	e8 0b 0e 00 00       	call   101950 <readi>
  100b45:	83 f8 20             	cmp    $0x20,%eax
  100b48:	0f 85 ca 01 00 00    	jne    100d18 <exec+0x388>
      goto bad;
    if(ph.type != ELF_PROG_LOAD)
  100b4e:	83 7d c8 01          	cmpl   $0x1,-0x38(%ebp)
  100b52:	75 c4                	jne    100b18 <exec+0x188>
      continue;
    if(ph.va + ph.memsz > sz)
  100b54:	8b 45 d0             	mov    -0x30(%ebp),%eax
  100b57:	8b 55 dc             	mov    -0x24(%ebp),%edx
  100b5a:	01 c2                	add    %eax,%edx
  100b5c:	39 55 80             	cmp    %edx,-0x80(%ebp)
  100b5f:	0f 82 b3 01 00 00    	jb     100d18 <exec+0x388>
      goto bad;
    if(readi(ip, mem + ph.va, ph.offset, ph.filesz) != ph.filesz)
  100b65:	8b 55 d8             	mov    -0x28(%ebp),%edx
  100b68:	03 45 84             	add    -0x7c(%ebp),%eax
  100b6b:	89 1c 24             	mov    %ebx,(%esp)
  100b6e:	89 54 24 0c          	mov    %edx,0xc(%esp)
  100b72:	8b 55 cc             	mov    -0x34(%ebp),%edx
  100b75:	89 44 24 04          	mov    %eax,0x4(%esp)
  100b79:	89 54 24 08          	mov    %edx,0x8(%esp)
  100b7d:	e8 ce 0d 00 00       	call   101950 <readi>
  100b82:	3b 45 d8             	cmp    -0x28(%ebp),%eax
  100b85:	0f 85 8d 01 00 00    	jne    100d18 <exec+0x388>
      goto bad;
    memset(mem + ph.va + ph.filesz, 0, ph.memsz - ph.filesz);
  100b8b:	8b 55 dc             	mov    -0x24(%ebp),%edx
  if(mem == 0)
    goto bad;
  memset(mem, 0, sz);

  // Load program into memory.
  for(i=0, off=elf.phoff; i<elf.phnum; i++, off+=sizeof(ph)){
  100b8e:	83 c6 01             	add    $0x1,%esi
      continue;
    if(ph.va + ph.memsz > sz)
      goto bad;
    if(readi(ip, mem + ph.va, ph.offset, ph.filesz) != ph.filesz)
      goto bad;
    memset(mem + ph.va + ph.filesz, 0, ph.memsz - ph.filesz);
  100b91:	c7 44 24 04 00 00 00 	movl   $0x0,0x4(%esp)
  100b98:	00 
  100b99:	29 c2                	sub    %eax,%edx
  100b9b:	03 45 d0             	add    -0x30(%ebp),%eax
  100b9e:	03 45 84             	add    -0x7c(%ebp),%eax
  100ba1:	89 54 24 08          	mov    %edx,0x8(%esp)
  100ba5:	89 04 24             	mov    %eax,(%esp)
  100ba8:	e8 73 34 00 00       	call   104020 <memset>
  if(mem == 0)
    goto bad;
  memset(mem, 0, sz);

  // Load program into memory.
  for(i=0, off=elf.phoff; i<elf.phnum; i++, off+=sizeof(ph)){
  100bad:	0f b7 45 c0          	movzwl -0x40(%ebp),%eax
  100bb1:	39 f0                	cmp    %esi,%eax
  100bb3:	0f 8f 6e ff ff ff    	jg     100b27 <exec+0x197>
      goto bad;
    if(readi(ip, mem + ph.va, ph.offset, ph.filesz) != ph.filesz)
      goto bad;
    memset(mem + ph.va + ph.filesz, 0, ph.memsz - ph.filesz);
  }
  iunlockput(ip);
  100bb9:	89 1c 24             	mov    %ebx,(%esp)
  100bbc:	e8 3f 0d 00 00       	call   101900 <iunlockput>
  
  // Initialize stack.
  sp = sz;
  argp = sz - arglen - 4*(argc+1);
  100bc1:	8b 85 7c ff ff ff    	mov    -0x84(%ebp),%eax
  100bc7:	8b 55 80             	mov    -0x80(%ebp),%edx
  100bca:	2b 95 78 ff ff ff    	sub    -0x88(%ebp),%edx

  // Copy argv strings and pointers to stack.
  *(uint*)(mem+argp + 4*argc) = 0;  // argv[argc]
  100bd0:	8b 4d 84             	mov    -0x7c(%ebp),%ecx
  }
  iunlockput(ip);
  
  // Initialize stack.
  sp = sz;
  argp = sz - arglen - 4*(argc+1);
  100bd3:	f7 d0                	not    %eax
  100bd5:	8d 04 82             	lea    (%edx,%eax,4),%eax

  // Copy argv strings and pointers to stack.
  *(uint*)(mem+argp + 4*argc) = 0;  // argv[argc]
  100bd8:	8b 95 7c ff ff ff    	mov    -0x84(%ebp),%edx
  }
  iunlockput(ip);
  
  // Initialize stack.
  sp = sz;
  argp = sz - arglen - 4*(argc+1);
  100bde:	89 85 78 ff ff ff    	mov    %eax,-0x88(%ebp)

  // Copy argv strings and pointers to stack.
  *(uint*)(mem+argp + 4*argc) = 0;  // argv[argc]
  for(i=argc-1; i>=0; i--){
  100be4:	89 d3                	mov    %edx,%ebx
  100be6:	83 eb 01             	sub    $0x1,%ebx
  // Initialize stack.
  sp = sz;
  argp = sz - arglen - 4*(argc+1);

  // Copy argv strings and pointers to stack.
  *(uint*)(mem+argp + 4*argc) = 0;  // argv[argc]
  100be9:	8d 04 90             	lea    (%eax,%edx,4),%eax
  for(i=argc-1; i>=0; i--){
  100bec:	83 fb ff             	cmp    $0xffffffff,%ebx
  // Initialize stack.
  sp = sz;
  argp = sz - arglen - 4*(argc+1);

  // Copy argv strings and pointers to stack.
  *(uint*)(mem+argp + 4*argc) = 0;  // argv[argc]
  100bef:	c7 04 01 00 00 00 00 	movl   $0x0,(%ecx,%eax,1)
  for(i=argc-1; i>=0; i--){
  100bf6:	74 51                	je     100c49 <exec+0x2b9>
  100bf8:	8b 85 78 ff ff ff    	mov    -0x88(%ebp),%eax
  100bfe:	8b 75 80             	mov    -0x80(%ebp),%esi
  100c01:	8d 3c 01             	lea    (%ecx,%eax,1),%edi
  100c04:	89 bd 7c ff ff ff    	mov    %edi,-0x84(%ebp)
  100c0a:	8b 7d 0c             	mov    0xc(%ebp),%edi
  100c0d:	8d 76 00             	lea    0x0(%esi),%esi
    len = strlen(argv[i]) + 1;
  100c10:	8b 04 9f             	mov    (%edi,%ebx,4),%eax
  100c13:	89 04 24             	mov    %eax,(%esp)
  100c16:	e8 f5 35 00 00       	call   104210 <strlen>
  100c1b:	83 c0 01             	add    $0x1,%eax
    sp -= len;
  100c1e:	29 c6                	sub    %eax,%esi
    memmove(mem+sp, argv[i], len);
  100c20:	89 44 24 08          	mov    %eax,0x8(%esp)
  100c24:	8b 04 9f             	mov    (%edi,%ebx,4),%eax
  100c27:	89 44 24 04          	mov    %eax,0x4(%esp)
  100c2b:	8b 45 84             	mov    -0x7c(%ebp),%eax
  100c2e:	01 f0                	add    %esi,%eax
  100c30:	89 04 24             	mov    %eax,(%esp)
  100c33:	e8 78 34 00 00       	call   1040b0 <memmove>
    *(uint*)(mem+argp + 4*i) = sp;  // argv[i]
  100c38:	8b 95 7c ff ff ff    	mov    -0x84(%ebp),%edx
  100c3e:	89 34 9a             	mov    %esi,(%edx,%ebx,4)
  sp = sz;
  argp = sz - arglen - 4*(argc+1);

  // Copy argv strings and pointers to stack.
  *(uint*)(mem+argp + 4*argc) = 0;  // argv[argc]
  for(i=argc-1; i>=0; i--){
  100c41:	83 eb 01             	sub    $0x1,%ebx
  100c44:	83 fb ff             	cmp    $0xffffffff,%ebx
  100c47:	75 c7                	jne    100c10 <exec+0x280>
  }

  // Stack frame for main(argc, argv), below arguments.
  sp = argp;
  sp -= 4;
  *(uint*)(mem+sp) = argp;
  100c49:	8b 8d 78 ff ff ff    	mov    -0x88(%ebp),%ecx
  100c4f:	8b 45 84             	mov    -0x7c(%ebp),%eax
  sp -= 4;
  *(uint*)(mem+sp) = argc;
  100c52:	8b 95 74 ff ff ff    	mov    -0x8c(%ebp),%edx
  sp -= 4;
  100c58:	89 cb                	mov    %ecx,%ebx
  }

  // Stack frame for main(argc, argv), below arguments.
  sp = argp;
  sp -= 4;
  *(uint*)(mem+sp) = argp;
  100c5a:	89 4c 08 fc          	mov    %ecx,-0x4(%eax,%ecx,1)
  sp -= 4;
  *(uint*)(mem+sp) = argc;
  sp -= 4;
  100c5e:	83 eb 0c             	sub    $0xc,%ebx
  // Stack frame for main(argc, argv), below arguments.
  sp = argp;
  sp -= 4;
  *(uint*)(mem+sp) = argp;
  sp -= 4;
  *(uint*)(mem+sp) = argc;
  100c61:	89 54 08 f8          	mov    %edx,-0x8(%eax,%ecx,1)
  sp -= 4;
  *(uint*)(mem+sp) = 0xffffffff;   // fake return pc
  100c65:	c7 44 08 f4 ff ff ff 	movl   $0xffffffff,-0xc(%eax,%ecx,1)
  100c6c:	ff 

  // Save program name for debugging.
  for(last=s=path; *s; s++)
  100c6d:	8b 4d 08             	mov    0x8(%ebp),%ecx
  100c70:	0f b6 01             	movzbl (%ecx),%eax
  100c73:	89 ce                	mov    %ecx,%esi
  100c75:	84 c0                	test   %al,%al
  100c77:	74 16                	je     100c8f <exec+0x2ff>
#include "defs.h"
#include "x86.h"
#include "elf.h"

int
exec(char *path, char **argv)
  100c79:	8d 51 01             	lea    0x1(%ecx),%edx
  100c7c:	8d 74 26 00          	lea    0x0(%esi,%eiz,1),%esi
  sp -= 4;
  *(uint*)(mem+sp) = 0xffffffff;   // fake return pc

  // Save program name for debugging.
  for(last=s=path; *s; s++)
    if(*s == '/')
  100c80:	3c 2f                	cmp    $0x2f,%al
  *(uint*)(mem+sp) = argc;
  sp -= 4;
  *(uint*)(mem+sp) = 0xffffffff;   // fake return pc

  // Save program name for debugging.
  for(last=s=path; *s; s++)
  100c82:	0f b6 02             	movzbl (%edx),%eax
    if(*s == '/')
  100c85:	0f 44 f2             	cmove  %edx,%esi
  *(uint*)(mem+sp) = argc;
  sp -= 4;
  *(uint*)(mem+sp) = 0xffffffff;   // fake return pc

  // Save program name for debugging.
  for(last=s=path; *s; s++)
  100c88:	83 c2 01             	add    $0x1,%edx
  100c8b:	84 c0                	test   %al,%al
  100c8d:	75 f1                	jne    100c80 <exec+0x2f0>
    if(*s == '/')
      last = s+1;
  safestrcpy(cp->name, last, sizeof(cp->name));
  100c8f:	e8 7c 29 00 00       	call   103610 <curproc>
  100c94:	89 74 24 04          	mov    %esi,0x4(%esp)
  100c98:	c7 44 24 08 10 00 00 	movl   $0x10,0x8(%esp)
  100c9f:	00 
  100ca0:	05 88 00 00 00       	add    $0x88,%eax
  100ca5:	89 04 24             	mov    %eax,(%esp)
  100ca8:	e8 23 35 00 00       	call   1041d0 <safestrcpy>

  // Commit to the new image.
  kfree(cp->mem, cp->sz);
  100cad:	e8 5e 29 00 00       	call   103610 <curproc>
  100cb2:	8b 70 04             	mov    0x4(%eax),%esi
  100cb5:	e8 56 29 00 00       	call   103610 <curproc>
  100cba:	89 74 24 04          	mov    %esi,0x4(%esp)
  100cbe:	8b 00                	mov    (%eax),%eax
  100cc0:	89 04 24             	mov    %eax,(%esp)
  100cc3:	e8 68 16 00 00       	call   102330 <kfree>
  cp->mem = mem;
  100cc8:	e8 43 29 00 00       	call   103610 <curproc>
  100ccd:	8b 55 84             	mov    -0x7c(%ebp),%edx
  100cd0:	89 10                	mov    %edx,(%eax)
  cp->sz = sz;
  100cd2:	e8 39 29 00 00       	call   103610 <curproc>
  100cd7:	8b 4d 80             	mov    -0x80(%ebp),%ecx
  100cda:	89 48 04             	mov    %ecx,0x4(%eax)
  cp->tf->eip = elf.entry;  // main
  100cdd:	e8 2e 29 00 00       	call   103610 <curproc>
  100ce2:	8b 55 ac             	mov    -0x54(%ebp),%edx
  100ce5:	8b 80 84 00 00 00    	mov    0x84(%eax),%eax
  100ceb:	89 50 30             	mov    %edx,0x30(%eax)
  cp->tf->esp = sp;
  100cee:	e8 1d 29 00 00       	call   103610 <curproc>
  100cf3:	8b 80 84 00 00 00    	mov    0x84(%eax),%eax
  100cf9:	89 58 3c             	mov    %ebx,0x3c(%eax)
  setupsegs(cp);
  100cfc:	e8 0f 29 00 00       	call   103610 <curproc>
  100d01:	89 04 24             	mov    %eax,(%esp)
  100d04:	e8 67 24 00 00       	call   103170 <setupsegs>
  return 0;
  100d09:	31 c0                	xor    %eax,%eax
 bad:
  if(mem)
    kfree(mem, sz);
  iunlockput(ip);
  return -1;
}
  100d0b:	81 c4 9c 00 00 00    	add    $0x9c,%esp
  100d11:	5b                   	pop    %ebx
  100d12:	5e                   	pop    %esi
  100d13:	5f                   	pop    %edi
  100d14:	5d                   	pop    %ebp
  100d15:	c3                   	ret    
  100d16:	66 90                	xchg   %ax,%ax
  setupsegs(cp);
  return 0;

 bad:
  if(mem)
    kfree(mem, sz);
  100d18:	8b 45 80             	mov    -0x80(%ebp),%eax
  100d1b:	8b 55 84             	mov    -0x7c(%ebp),%edx
  100d1e:	89 44 24 04          	mov    %eax,0x4(%esp)
  100d22:	89 14 24             	mov    %edx,(%esp)
  100d25:	e8 06 16 00 00       	call   102330 <kfree>
  iunlockput(ip);
  100d2a:	89 1c 24             	mov    %ebx,(%esp)
  100d2d:	e8 ce 0b 00 00       	call   101900 <iunlockput>
  return -1;
}
  100d32:	81 c4 9c 00 00 00    	add    $0x9c,%esp

 bad:
  if(mem)
    kfree(mem, sz);
  iunlockput(ip);
  return -1;
  100d38:	b8 ff ff ff ff       	mov    $0xffffffff,%eax
}
  100d3d:	5b                   	pop    %ebx
  100d3e:	5e                   	pop    %esi
  100d3f:	5f                   	pop    %edi
  100d40:	5d                   	pop    %ebp
  100d41:	c3                   	ret    
    sz += ph.memsz;
  }
  
  // Arguments.
  arglen = 0;
  for(argc=0; argv[argc]; argc++)
  100d42:	b8 04 00 00 00       	mov    $0x4,%eax
  100d47:	c7 85 78 ff ff ff 00 	movl   $0x0,-0x88(%ebp)
  100d4e:	00 00 00 
  100d51:	c7 85 74 ff ff ff 00 	movl   $0x0,-0x8c(%ebp)
  100d58:	00 00 00 
  100d5b:	c7 85 7c ff ff ff 00 	movl   $0x0,-0x84(%ebp)
  100d62:	00 00 00 
  100d65:	e9 61 fd ff ff       	jmp    100acb <exec+0x13b>
  // Program segments.
  if(readi(ip, (char*)&elf, 0, sizeof(elf)) < sizeof(elf))
    goto bad;
  if(elf.magic != ELF_MAGIC)
    goto bad;
  for(i=0, off=elf.phoff; i<elf.phnum; i++, off+=sizeof(ph)){
  100d6a:	bf ff 1f 00 00       	mov    $0x1fff,%edi
  100d6f:	e9 f7 fc ff ff       	jmp    100a6b <exec+0xdb>
  100d74:	90                   	nop
  100d75:	90                   	nop
  100d76:	90                   	nop
  100d77:	90                   	nop
  100d78:	90                   	nop
  100d79:	90                   	nop
  100d7a:	90                   	nop
  100d7b:	90                   	nop
  100d7c:	90                   	nop
  100d7d:	90                   	nop
  100d7e:	90                   	nop
  100d7f:	90                   	nop

00100d80 <fileinit>:
struct spinlock file_table_lock;
struct file file[NFILE];

void
fileinit(void)
{
  100d80:	55                   	push   %ebp
  100d81:	89 e5                	mov    %esp,%ebp
  100d83:	83 ec 18             	sub    $0x18,%esp
  initlock(&file_table_lock, "file_table");
  100d86:	c7 44 24 04 8a 60 10 	movl   $0x10608a,0x4(%esp)
  100d8d:	00 
  100d8e:	c7 04 24 00 9a 10 00 	movl   $0x109a00,(%esp)
  100d95:	e8 56 30 00 00       	call   103df0 <initlock>
}
  100d9a:	c9                   	leave  
  100d9b:	c3                   	ret    
  100d9c:	8d 74 26 00          	lea    0x0(%esi,%eiz,1),%esi

00100da0 <filealloc>:

// Allocate a file structure.
struct file*
filealloc(void)
{
  100da0:	55                   	push   %ebp
  100da1:	89 e5                	mov    %esp,%ebp
  100da3:	53                   	push   %ebx
  100da4:	83 ec 14             	sub    $0x14,%esp
  int i;

  acquire(&file_table_lock);
  100da7:	c7 04 24 00 9a 10 00 	movl   $0x109a00,(%esp)
  100dae:	e8 3d 31 00 00       	call   103ef0 <acquire>
  100db3:	ba a0 90 10 00       	mov    $0x1090a0,%edx
  for(i = 0; i < NFILE; i++){
  100db8:	31 c0                	xor    %eax,%eax
  100dba:	eb 0f                	jmp    100dcb <filealloc+0x2b>
  100dbc:	8d 74 26 00          	lea    0x0(%esi,%eiz,1),%esi
  100dc0:	83 c0 01             	add    $0x1,%eax
  100dc3:	83 c2 18             	add    $0x18,%edx
  100dc6:	83 f8 64             	cmp    $0x64,%eax
  100dc9:	74 3d                	je     100e08 <filealloc+0x68>
    if(file[i].type == FD_CLOSED){
  100dcb:	8b 0a                	mov    (%edx),%ecx
  100dcd:	85 c9                	test   %ecx,%ecx
  100dcf:	75 ef                	jne    100dc0 <filealloc+0x20>
      file[i].type = FD_NONE;
  100dd1:	8d 04 40             	lea    (%eax,%eax,2),%eax
  100dd4:	c1 e0 03             	shl    $0x3,%eax
  100dd7:	8d 98 a0 90 10 00    	lea    0x1090a0(%eax),%ebx
  100ddd:	c7 80 a0 90 10 00 01 	movl   $0x1,0x1090a0(%eax)
  100de4:	00 00 00 
      file[i].ref = 1;
  100de7:	c7 43 04 01 00 00 00 	movl   $0x1,0x4(%ebx)
      release(&file_table_lock);
  100dee:	c7 04 24 00 9a 10 00 	movl   $0x109a00,(%esp)
  100df5:	e8 e6 31 00 00       	call   103fe0 <release>
      return file + i;
  100dfa:	89 d8                	mov    %ebx,%eax
    }
  }
  release(&file_table_lock);
  return 0;
}
  100dfc:	83 c4 14             	add    $0x14,%esp
  100dff:	5b                   	pop    %ebx
  100e00:	5d                   	pop    %ebp
  100e01:	c3                   	ret    
  100e02:	8d b6 00 00 00 00    	lea    0x0(%esi),%esi
      file[i].ref = 1;
      release(&file_table_lock);
      return file + i;
    }
  }
  release(&file_table_lock);
  100e08:	c7 04 24 00 9a 10 00 	movl   $0x109a00,(%esp)
  100e0f:	e8 cc 31 00 00       	call   103fe0 <release>
  return 0;
}
  100e14:	83 c4 14             	add    $0x14,%esp
      release(&file_table_lock);
      return file + i;
    }
  }
  release(&file_table_lock);
  return 0;
  100e17:	31 c0                	xor    %eax,%eax
}
  100e19:	5b                   	pop    %ebx
  100e1a:	5d                   	pop    %ebp
  100e1b:	c3                   	ret    
  100e1c:	8d 74 26 00          	lea    0x0(%esi,%eiz,1),%esi

00100e20 <filedup>:

// Increment ref count for file f.
struct file*
filedup(struct file *f)
{
  100e20:	55                   	push   %ebp
  100e21:	89 e5                	mov    %esp,%ebp
  100e23:	53                   	push   %ebx
  100e24:	83 ec 14             	sub    $0x14,%esp
  100e27:	8b 5d 08             	mov    0x8(%ebp),%ebx
  acquire(&file_table_lock);
  100e2a:	c7 04 24 00 9a 10 00 	movl   $0x109a00,(%esp)
  100e31:	e8 ba 30 00 00       	call   103ef0 <acquire>
  if(f->ref < 1 || f->type == FD_CLOSED)
  100e36:	8b 43 04             	mov    0x4(%ebx),%eax
  100e39:	85 c0                	test   %eax,%eax
  100e3b:	7e 20                	jle    100e5d <filedup+0x3d>
  100e3d:	8b 13                	mov    (%ebx),%edx
  100e3f:	85 d2                	test   %edx,%edx
  100e41:	74 1a                	je     100e5d <filedup+0x3d>
    panic("filedup");
  f->ref++;
  100e43:	83 c0 01             	add    $0x1,%eax
  100e46:	89 43 04             	mov    %eax,0x4(%ebx)
  release(&file_table_lock);
  100e49:	c7 04 24 00 9a 10 00 	movl   $0x109a00,(%esp)
  100e50:	e8 8b 31 00 00       	call   103fe0 <release>
  return f;
}
  100e55:	89 d8                	mov    %ebx,%eax
  100e57:	83 c4 14             	add    $0x14,%esp
  100e5a:	5b                   	pop    %ebx
  100e5b:	5d                   	pop    %ebp
  100e5c:	c3                   	ret    
struct file*
filedup(struct file *f)
{
  acquire(&file_table_lock);
  if(f->ref < 1 || f->type == FD_CLOSED)
    panic("filedup");
  100e5d:	c7 04 24 95 60 10 00 	movl   $0x106095,(%esp)
  100e64:	e8 97 fa ff ff       	call   100900 <panic>
  100e69:	8d b4 26 00 00 00 00 	lea    0x0(%esi,%eiz,1),%esi

00100e70 <fileclose>:
}

// Close file f.  (Decrement ref count, close when reaches 0.)
void
fileclose(struct file *f)
{
  100e70:	55                   	push   %ebp
  100e71:	89 e5                	mov    %esp,%ebp
  100e73:	83 ec 38             	sub    $0x38,%esp
  100e76:	89 5d f4             	mov    %ebx,-0xc(%ebp)
  100e79:	8b 5d 08             	mov    0x8(%ebp),%ebx
  100e7c:	89 75 f8             	mov    %esi,-0x8(%ebp)
  100e7f:	89 7d fc             	mov    %edi,-0x4(%ebp)
  struct file ff;

  acquire(&file_table_lock);
  100e82:	c7 04 24 00 9a 10 00 	movl   $0x109a00,(%esp)
  100e89:	e8 62 30 00 00       	call   103ef0 <acquire>
  if(f->ref < 1 || f->type == FD_CLOSED)
  100e8e:	8b 43 04             	mov    0x4(%ebx),%eax
  100e91:	85 c0                	test   %eax,%eax
  100e93:	0f 8e 97 00 00 00    	jle    100f30 <fileclose+0xc0>
  100e99:	8b 33                	mov    (%ebx),%esi
  100e9b:	85 f6                	test   %esi,%esi
  100e9d:	0f 84 8d 00 00 00    	je     100f30 <fileclose+0xc0>
    panic("fileclose");
  if(--f->ref > 0){
  100ea3:	83 e8 01             	sub    $0x1,%eax
  100ea6:	85 c0                	test   %eax,%eax
  100ea8:	89 43 04             	mov    %eax,0x4(%ebx)
  100eab:	74 1b                	je     100ec8 <fileclose+0x58>
    release(&file_table_lock);
  100ead:	c7 45 08 00 9a 10 00 	movl   $0x109a00,0x8(%ebp)
    pipeclose(ff.pipe, ff.writable);
  else if(ff.type == FD_INODE)
    iput(ff.ip);
  else
    panic("fileclose");
}
  100eb4:	8b 5d f4             	mov    -0xc(%ebp),%ebx
  100eb7:	8b 75 f8             	mov    -0x8(%ebp),%esi
  100eba:	8b 7d fc             	mov    -0x4(%ebp),%edi
  100ebd:	89 ec                	mov    %ebp,%esp
  100ebf:	5d                   	pop    %ebp

  acquire(&file_table_lock);
  if(f->ref < 1 || f->type == FD_CLOSED)
    panic("fileclose");
  if(--f->ref > 0){
    release(&file_table_lock);
  100ec0:	e9 1b 31 00 00       	jmp    103fe0 <release>
  100ec5:	8d 76 00             	lea    0x0(%esi),%esi
  100ec8:	0f b6 43 09          	movzbl 0x9(%ebx),%eax
    return;
  }
  ff = *f;
  f->ref = 0;
  100ecc:	c7 43 04 00 00 00 00 	movl   $0x0,0x4(%ebx)

  acquire(&file_table_lock);
  if(f->ref < 1 || f->type == FD_CLOSED)
    panic("fileclose");
  if(--f->ref > 0){
    release(&file_table_lock);
  100ed3:	8b 7b 10             	mov    0x10(%ebx),%edi
    return;
  }
  ff = *f;
  f->ref = 0;
  f->type = FD_CLOSED;
  100ed6:	c7 03 00 00 00 00    	movl   $0x0,(%ebx)

  acquire(&file_table_lock);
  if(f->ref < 1 || f->type == FD_CLOSED)
    panic("fileclose");
  if(--f->ref > 0){
    release(&file_table_lock);
  100edc:	88 45 e7             	mov    %al,-0x19(%ebp)
  100edf:	8b 43 0c             	mov    0xc(%ebx),%eax
    return;
  }
  ff = *f;
  f->ref = 0;
  f->type = FD_CLOSED;
  release(&file_table_lock);
  100ee2:	c7 04 24 00 9a 10 00 	movl   $0x109a00,(%esp)

  acquire(&file_table_lock);
  if(f->ref < 1 || f->type == FD_CLOSED)
    panic("fileclose");
  if(--f->ref > 0){
    release(&file_table_lock);
  100ee9:	89 45 e0             	mov    %eax,-0x20(%ebp)
    return;
  }
  ff = *f;
  f->ref = 0;
  f->type = FD_CLOSED;
  release(&file_table_lock);
  100eec:	e8 ef 30 00 00       	call   103fe0 <release>
  
  if(ff.type == FD_PIPE)
  100ef1:	83 fe 02             	cmp    $0x2,%esi
  100ef4:	74 1a                	je     100f10 <fileclose+0xa0>
    pipeclose(ff.pipe, ff.writable);
  else if(ff.type == FD_INODE)
  100ef6:	83 fe 03             	cmp    $0x3,%esi
  100ef9:	75 35                	jne    100f30 <fileclose+0xc0>
    iput(ff.ip);
  100efb:	89 7d 08             	mov    %edi,0x8(%ebp)
  else
    panic("fileclose");
}
  100efe:	8b 5d f4             	mov    -0xc(%ebp),%ebx
  100f01:	8b 75 f8             	mov    -0x8(%ebp),%esi
  100f04:	8b 7d fc             	mov    -0x4(%ebp),%edi
  100f07:	89 ec                	mov    %ebp,%esp
  100f09:	5d                   	pop    %ebp
  release(&file_table_lock);
  
  if(ff.type == FD_PIPE)
    pipeclose(ff.pipe, ff.writable);
  else if(ff.type == FD_INODE)
    iput(ff.ip);
  100f0a:	e9 b1 08 00 00       	jmp    1017c0 <iput>
  100f0f:	90                   	nop
  f->ref = 0;
  f->type = FD_CLOSED;
  release(&file_table_lock);
  
  if(ff.type == FD_PIPE)
    pipeclose(ff.pipe, ff.writable);
  100f10:	0f be 45 e7          	movsbl -0x19(%ebp),%eax
  100f14:	89 44 24 04          	mov    %eax,0x4(%esp)
  100f18:	8b 45 e0             	mov    -0x20(%ebp),%eax
  100f1b:	89 04 24             	mov    %eax,(%esp)
  100f1e:	e8 ad 1f 00 00       	call   102ed0 <pipeclose>
  else if(ff.type == FD_INODE)
    iput(ff.ip);
  else
    panic("fileclose");
}
  100f23:	8b 5d f4             	mov    -0xc(%ebp),%ebx
  100f26:	8b 75 f8             	mov    -0x8(%ebp),%esi
  100f29:	8b 7d fc             	mov    -0x4(%ebp),%edi
  100f2c:	89 ec                	mov    %ebp,%esp
  100f2e:	5d                   	pop    %ebp
  100f2f:	c3                   	ret    
  if(ff.type == FD_PIPE)
    pipeclose(ff.pipe, ff.writable);
  else if(ff.type == FD_INODE)
    iput(ff.ip);
  else
    panic("fileclose");
  100f30:	c7 04 24 9d 60 10 00 	movl   $0x10609d,(%esp)
  100f37:	e8 c4 f9 ff ff       	call   100900 <panic>
  100f3c:	8d 74 26 00          	lea    0x0(%esi,%eiz,1),%esi

00100f40 <filestat>:
}

// Get metadata about file f.
int
filestat(struct file *f, struct stat *st)
{
  100f40:	55                   	push   %ebp
    ilock(f->ip);
    stati(f->ip, st);
    iunlock(f->ip);
    return 0;
  }
  return -1;
  100f41:	b8 ff ff ff ff       	mov    $0xffffffff,%eax
}

// Get metadata about file f.
int
filestat(struct file *f, struct stat *st)
{
  100f46:	89 e5                	mov    %esp,%ebp
  100f48:	53                   	push   %ebx
  100f49:	83 ec 14             	sub    $0x14,%esp
  100f4c:	8b 5d 08             	mov    0x8(%ebp),%ebx
  if(f->type == FD_INODE){
  100f4f:	83 3b 03             	cmpl   $0x3,(%ebx)
  100f52:	74 0c                	je     100f60 <filestat+0x20>
    stati(f->ip, st);
    iunlock(f->ip);
    return 0;
  }
  return -1;
}
  100f54:	83 c4 14             	add    $0x14,%esp
  100f57:	5b                   	pop    %ebx
  100f58:	5d                   	pop    %ebp
  100f59:	c3                   	ret    
  100f5a:	8d b6 00 00 00 00    	lea    0x0(%esi),%esi
// Get metadata about file f.
int
filestat(struct file *f, struct stat *st)
{
  if(f->type == FD_INODE){
    ilock(f->ip);
  100f60:	8b 43 10             	mov    0x10(%ebx),%eax
  100f63:	89 04 24             	mov    %eax,(%esp)
  100f66:	e8 95 05 00 00       	call   101500 <ilock>
    stati(f->ip, st);
  100f6b:	8b 45 0c             	mov    0xc(%ebp),%eax
  100f6e:	89 44 24 04          	mov    %eax,0x4(%esp)
  100f72:	8b 43 10             	mov    0x10(%ebx),%eax
  100f75:	89 04 24             	mov    %eax,(%esp)
  100f78:	e8 a3 09 00 00       	call   101920 <stati>
    iunlock(f->ip);
  100f7d:	8b 43 10             	mov    0x10(%ebx),%eax
  100f80:	89 04 24             	mov    %eax,(%esp)
  100f83:	e8 88 06 00 00       	call   101610 <iunlock>
    return 0;
  }
  return -1;
}
  100f88:	83 c4 14             	add    $0x14,%esp
{
  if(f->type == FD_INODE){
    ilock(f->ip);
    stati(f->ip, st);
    iunlock(f->ip);
    return 0;
  100f8b:	31 c0                	xor    %eax,%eax
  }
  return -1;
}
  100f8d:	5b                   	pop    %ebx
  100f8e:	5d                   	pop    %ebp
  100f8f:	c3                   	ret    

00100f90 <fileread>:

// Read from file f.  Addr is kernel address.
int
fileread(struct file *f, char *addr, int n)
{
  100f90:	55                   	push   %ebp
  100f91:	89 e5                	mov    %esp,%ebp
  100f93:	83 ec 38             	sub    $0x38,%esp
  100f96:	89 5d f4             	mov    %ebx,-0xc(%ebp)
  100f99:	8b 5d 08             	mov    0x8(%ebp),%ebx
  100f9c:	89 75 f8             	mov    %esi,-0x8(%ebp)
  100f9f:	8b 75 0c             	mov    0xc(%ebp),%esi
  100fa2:	89 7d fc             	mov    %edi,-0x4(%ebp)
  100fa5:	8b 7d 10             	mov    0x10(%ebp),%edi
  int r;

  if(f->readable == 0)
  100fa8:	80 7b 08 00          	cmpb   $0x0,0x8(%ebx)
  100fac:	74 5a                	je     101008 <fileread+0x78>
    return -1;
  if(f->type == FD_PIPE)
  100fae:	8b 03                	mov    (%ebx),%eax
  100fb0:	83 f8 02             	cmp    $0x2,%eax
  100fb3:	74 6b                	je     101020 <fileread+0x90>
    return piperead(f->pipe, addr, n);
  if(f->type == FD_INODE){
  100fb5:	83 f8 03             	cmp    $0x3,%eax
  100fb8:	75 7d                	jne    101037 <fileread+0xa7>
    ilock(f->ip);
  100fba:	8b 43 10             	mov    0x10(%ebx),%eax
  100fbd:	89 04 24             	mov    %eax,(%esp)
  100fc0:	e8 3b 05 00 00       	call   101500 <ilock>
    if((r = readi(f->ip, addr, f->off, n)) > 0)
  100fc5:	89 7c 24 0c          	mov    %edi,0xc(%esp)
  100fc9:	8b 43 14             	mov    0x14(%ebx),%eax
  100fcc:	89 74 24 04          	mov    %esi,0x4(%esp)
  100fd0:	89 44 24 08          	mov    %eax,0x8(%esp)
  100fd4:	8b 43 10             	mov    0x10(%ebx),%eax
  100fd7:	89 04 24             	mov    %eax,(%esp)
  100fda:	e8 71 09 00 00       	call   101950 <readi>
  100fdf:	85 c0                	test   %eax,%eax
  100fe1:	7e 03                	jle    100fe6 <fileread+0x56>
      f->off += r;
  100fe3:	01 43 14             	add    %eax,0x14(%ebx)
    iunlock(f->ip);
  100fe6:	8b 53 10             	mov    0x10(%ebx),%edx
  100fe9:	89 45 e4             	mov    %eax,-0x1c(%ebp)
  100fec:	89 14 24             	mov    %edx,(%esp)
  100fef:	e8 1c 06 00 00       	call   101610 <iunlock>
    return r;
  100ff4:	8b 45 e4             	mov    -0x1c(%ebp),%eax
  }
  panic("fileread");
}
  100ff7:	8b 5d f4             	mov    -0xc(%ebp),%ebx
  100ffa:	8b 75 f8             	mov    -0x8(%ebp),%esi
  100ffd:	8b 7d fc             	mov    -0x4(%ebp),%edi
  101000:	89 ec                	mov    %ebp,%esp
  101002:	5d                   	pop    %ebp
  101003:	c3                   	ret    
  101004:	8d 74 26 00          	lea    0x0(%esi,%eiz,1),%esi
  101008:	8b 5d f4             	mov    -0xc(%ebp),%ebx
fileread(struct file *f, char *addr, int n)
{
  int r;

  if(f->readable == 0)
    return -1;
  10100b:	b8 ff ff ff ff       	mov    $0xffffffff,%eax
      f->off += r;
    iunlock(f->ip);
    return r;
  }
  panic("fileread");
}
  101010:	8b 75 f8             	mov    -0x8(%ebp),%esi
  101013:	8b 7d fc             	mov    -0x4(%ebp),%edi
  101016:	89 ec                	mov    %ebp,%esp
  101018:	5d                   	pop    %ebp
  101019:	c3                   	ret    
  10101a:	8d b6 00 00 00 00    	lea    0x0(%esi),%esi
  int r;

  if(f->readable == 0)
    return -1;
  if(f->type == FD_PIPE)
    return piperead(f->pipe, addr, n);
  101020:	8b 43 0c             	mov    0xc(%ebx),%eax
      f->off += r;
    iunlock(f->ip);
    return r;
  }
  panic("fileread");
}
  101023:	8b 75 f8             	mov    -0x8(%ebp),%esi
  101026:	8b 5d f4             	mov    -0xc(%ebp),%ebx
  101029:	8b 7d fc             	mov    -0x4(%ebp),%edi
  int r;

  if(f->readable == 0)
    return -1;
  if(f->type == FD_PIPE)
    return piperead(f->pipe, addr, n);
  10102c:	89 45 08             	mov    %eax,0x8(%ebp)
      f->off += r;
    iunlock(f->ip);
    return r;
  }
  panic("fileread");
}
  10102f:	89 ec                	mov    %ebp,%esp
  101031:	5d                   	pop    %ebp
  int r;

  if(f->readable == 0)
    return -1;
  if(f->type == FD_PIPE)
    return piperead(f->pipe, addr, n);
  101032:	e9 39 20 00 00       	jmp    103070 <piperead>
    if((r = readi(f->ip, addr, f->off, n)) > 0)
      f->off += r;
    iunlock(f->ip);
    return r;
  }
  panic("fileread");
  101037:	c7 04 24 a7 60 10 00 	movl   $0x1060a7,(%esp)
  10103e:	e8 bd f8 ff ff       	call   100900 <panic>
  101043:	8d b6 00 00 00 00    	lea    0x0(%esi),%esi
  101049:	8d bc 27 00 00 00 00 	lea    0x0(%edi,%eiz,1),%edi

00101050 <filewrite>:
}

// Write to file f.  Addr is kernel address.
int
filewrite(struct file *f, char *addr, int n)
{
  101050:	55                   	push   %ebp
  101051:	89 e5                	mov    %esp,%ebp
  101053:	83 ec 38             	sub    $0x38,%esp
  101056:	89 5d f4             	mov    %ebx,-0xc(%ebp)
  101059:	8b 5d 08             	mov    0x8(%ebp),%ebx
  10105c:	89 75 f8             	mov    %esi,-0x8(%ebp)
  10105f:	8b 75 0c             	mov    0xc(%ebp),%esi
  101062:	89 7d fc             	mov    %edi,-0x4(%ebp)
  101065:	8b 7d 10             	mov    0x10(%ebp),%edi
  int r;

  if(f->writable == 0)
  101068:	80 7b 09 00          	cmpb   $0x0,0x9(%ebx)
  10106c:	74 5a                	je     1010c8 <filewrite+0x78>
    return -1;
  if(f->type == FD_PIPE)
  10106e:	8b 03                	mov    (%ebx),%eax
  101070:	83 f8 02             	cmp    $0x2,%eax
  101073:	74 6b                	je     1010e0 <filewrite+0x90>
    return pipewrite(f->pipe, addr, n);
  if(f->type == FD_INODE){
  101075:	83 f8 03             	cmp    $0x3,%eax
  101078:	75 7d                	jne    1010f7 <filewrite+0xa7>
    ilock(f->ip);
  10107a:	8b 43 10             	mov    0x10(%ebx),%eax
  10107d:	89 04 24             	mov    %eax,(%esp)
  101080:	e8 7b 04 00 00       	call   101500 <ilock>
    if((r = writei(f->ip, addr, f->off, n)) > 0)
  101085:	89 7c 24 0c          	mov    %edi,0xc(%esp)
  101089:	8b 43 14             	mov    0x14(%ebx),%eax
  10108c:	89 74 24 04          	mov    %esi,0x4(%esp)
  101090:	89 44 24 08          	mov    %eax,0x8(%esp)
  101094:	8b 43 10             	mov    0x10(%ebx),%eax
  101097:	89 04 24             	mov    %eax,(%esp)
  10109a:	e8 d1 09 00 00       	call   101a70 <writei>
  10109f:	85 c0                	test   %eax,%eax
  1010a1:	7e 03                	jle    1010a6 <filewrite+0x56>
      f->off += r;
  1010a3:	01 43 14             	add    %eax,0x14(%ebx)
    iunlock(f->ip);
  1010a6:	8b 53 10             	mov    0x10(%ebx),%edx
  1010a9:	89 45 e4             	mov    %eax,-0x1c(%ebp)
  1010ac:	89 14 24             	mov    %edx,(%esp)
  1010af:	e8 5c 05 00 00       	call   101610 <iunlock>
    return r;
  1010b4:	8b 45 e4             	mov    -0x1c(%ebp),%eax
  }
  panic("filewrite");
}
  1010b7:	8b 5d f4             	mov    -0xc(%ebp),%ebx
  1010ba:	8b 75 f8             	mov    -0x8(%ebp),%esi
  1010bd:	8b 7d fc             	mov    -0x4(%ebp),%edi
  1010c0:	89 ec                	mov    %ebp,%esp
  1010c2:	5d                   	pop    %ebp
  1010c3:	c3                   	ret    
  1010c4:	8d 74 26 00          	lea    0x0(%esi,%eiz,1),%esi
  1010c8:	8b 5d f4             	mov    -0xc(%ebp),%ebx
filewrite(struct file *f, char *addr, int n)
{
  int r;

  if(f->writable == 0)
    return -1;
  1010cb:	b8 ff ff ff ff       	mov    $0xffffffff,%eax
      f->off += r;
    iunlock(f->ip);
    return r;
  }
  panic("filewrite");
}
  1010d0:	8b 75 f8             	mov    -0x8(%ebp),%esi
  1010d3:	8b 7d fc             	mov    -0x4(%ebp),%edi
  1010d6:	89 ec                	mov    %ebp,%esp
  1010d8:	5d                   	pop    %ebp
  1010d9:	c3                   	ret    
  1010da:	8d b6 00 00 00 00    	lea    0x0(%esi),%esi
  int r;

  if(f->writable == 0)
    return -1;
  if(f->type == FD_PIPE)
    return pipewrite(f->pipe, addr, n);
  1010e0:	8b 43 0c             	mov    0xc(%ebx),%eax
      f->off += r;
    iunlock(f->ip);
    return r;
  }
  panic("filewrite");
}
  1010e3:	8b 75 f8             	mov    -0x8(%ebp),%esi
  1010e6:	8b 5d f4             	mov    -0xc(%ebp),%ebx
  1010e9:	8b 7d fc             	mov    -0x4(%ebp),%edi
  int r;

  if(f->writable == 0)
    return -1;
  if(f->type == FD_PIPE)
    return pipewrite(f->pipe, addr, n);
  1010ec:	89 45 08             	mov    %eax,0x8(%ebp)
      f->off += r;
    iunlock(f->ip);
    return r;
  }
  panic("filewrite");
}
  1010ef:	89 ec                	mov    %ebp,%esp
  1010f1:	5d                   	pop    %ebp
  int r;

  if(f->writable == 0)
    return -1;
  if(f->type == FD_PIPE)
    return pipewrite(f->pipe, addr, n);
  1010f2:	e9 69 1e 00 00       	jmp    102f60 <pipewrite>
    if((r = writei(f->ip, addr, f->off, n)) > 0)
      f->off += r;
    iunlock(f->ip);
    return r;
  }
  panic("filewrite");
  1010f7:	c7 04 24 b0 60 10 00 	movl   $0x1060b0,(%esp)
  1010fe:	e8 fd f7 ff ff       	call   100900 <panic>
  101103:	90                   	nop
  101104:	90                   	nop
  101105:	90                   	nop
  101106:	90                   	nop
  101107:	90                   	nop
  101108:	90                   	nop
  101109:	90                   	nop
  10110a:	90                   	nop
  10110b:	90                   	nop
  10110c:	90                   	nop
  10110d:	90                   	nop
  10110e:	90                   	nop
  10110f:	90                   	nop

00101110 <iget>:

// Find the inode with number inum on device dev
// and return the in-memory copy.
static struct inode*
iget(uint dev, uint inum)
{
  101110:	55                   	push   %ebp
  101111:	89 e5                	mov    %esp,%ebp
  101113:	57                   	push   %edi
  101114:	89 d7                	mov    %edx,%edi
  101116:	56                   	push   %esi
  struct inode *ip, *empty;

  acquire(&icache.lock);

  // Try for cached inode.
  empty = 0;
  101117:	31 f6                	xor    %esi,%esi

// Find the inode with number inum on device dev
// and return the in-memory copy.
static struct inode*
iget(uint dev, uint inum)
{
  101119:	53                   	push   %ebx
  10111a:	89 c3                	mov    %eax,%ebx
  10111c:	83 ec 2c             	sub    $0x2c,%esp
  struct inode *ip, *empty;

  acquire(&icache.lock);
  10111f:	c7 04 24 a0 9a 10 00 	movl   $0x109aa0,(%esp)
  101126:	e8 c5 2d 00 00       	call   103ef0 <acquire>

  // Try for cached inode.
  empty = 0;
  for(ip = &icache.inode[0]; ip < &icache.inode[NINODE]; ip++){
  10112b:	b8 d4 9a 10 00       	mov    $0x109ad4,%eax
  101130:	eb 14                	jmp    101146 <iget+0x36>
  101132:	8d b6 00 00 00 00    	lea    0x0(%esi),%esi
    if(ip->ref > 0 && ip->dev == dev && ip->inum == inum){
      ip->ref++;
      release(&icache.lock);
      return ip;
    }
    if(empty == 0 && ip->ref == 0)    // Remember empty slot.
  101138:	85 f6                	test   %esi,%esi
  10113a:	74 3c                	je     101178 <iget+0x68>

  acquire(&icache.lock);

  // Try for cached inode.
  empty = 0;
  for(ip = &icache.inode[0]; ip < &icache.inode[NINODE]; ip++){
  10113c:	83 c0 50             	add    $0x50,%eax
  10113f:	3d 74 aa 10 00       	cmp    $0x10aa74,%eax
  101144:	74 42                	je     101188 <iget+0x78>
    if(ip->ref > 0 && ip->dev == dev && ip->inum == inum){
  101146:	8b 48 08             	mov    0x8(%eax),%ecx
  101149:	85 c9                	test   %ecx,%ecx
  10114b:	7e eb                	jle    101138 <iget+0x28>
  10114d:	39 18                	cmp    %ebx,(%eax)
  10114f:	75 e7                	jne    101138 <iget+0x28>
  101151:	39 78 04             	cmp    %edi,0x4(%eax)
  101154:	75 e2                	jne    101138 <iget+0x28>
      ip->ref++;
  101156:	83 c1 01             	add    $0x1,%ecx
  101159:	89 48 08             	mov    %ecx,0x8(%eax)
      release(&icache.lock);
  10115c:	89 45 e4             	mov    %eax,-0x1c(%ebp)
  10115f:	c7 04 24 a0 9a 10 00 	movl   $0x109aa0,(%esp)
  101166:	e8 75 2e 00 00       	call   103fe0 <release>
      return ip;
  10116b:	8b 45 e4             	mov    -0x1c(%ebp),%eax
  ip->ref = 1;
  ip->flags = 0;
  release(&icache.lock);

  return ip;
}
  10116e:	83 c4 2c             	add    $0x2c,%esp
  101171:	5b                   	pop    %ebx
  101172:	5e                   	pop    %esi
  101173:	5f                   	pop    %edi
  101174:	5d                   	pop    %ebp
  101175:	c3                   	ret    
  101176:	66 90                	xchg   %ax,%ax
    if(ip->ref > 0 && ip->dev == dev && ip->inum == inum){
      ip->ref++;
      release(&icache.lock);
      return ip;
    }
    if(empty == 0 && ip->ref == 0)    // Remember empty slot.
  101178:	85 c9                	test   %ecx,%ecx
  10117a:	0f 44 f0             	cmove  %eax,%esi

  acquire(&icache.lock);

  // Try for cached inode.
  empty = 0;
  for(ip = &icache.inode[0]; ip < &icache.inode[NINODE]; ip++){
  10117d:	83 c0 50             	add    $0x50,%eax
  101180:	3d 74 aa 10 00       	cmp    $0x10aa74,%eax
  101185:	75 bf                	jne    101146 <iget+0x36>
  101187:	90                   	nop
    if(empty == 0 && ip->ref == 0)    // Remember empty slot.
      empty = ip;
  }

  // Allocate fresh inode.
  if(empty == 0)
  101188:	85 f6                	test   %esi,%esi
  10118a:	74 29                	je     1011b5 <iget+0xa5>
    panic("iget: no inodes");

  ip = empty;
  ip->dev = dev;
  10118c:	89 1e                	mov    %ebx,(%esi)
  ip->inum = inum;
  10118e:	89 7e 04             	mov    %edi,0x4(%esi)
  ip->ref = 1;
  101191:	c7 46 08 01 00 00 00 	movl   $0x1,0x8(%esi)
  ip->flags = 0;
  101198:	c7 46 0c 00 00 00 00 	movl   $0x0,0xc(%esi)
  release(&icache.lock);
  10119f:	c7 04 24 a0 9a 10 00 	movl   $0x109aa0,(%esp)
  1011a6:	e8 35 2e 00 00       	call   103fe0 <release>

  return ip;
}
  1011ab:	83 c4 2c             	add    $0x2c,%esp
  ip->inum = inum;
  ip->ref = 1;
  ip->flags = 0;
  release(&icache.lock);

  return ip;
  1011ae:	89 f0                	mov    %esi,%eax
}
  1011b0:	5b                   	pop    %ebx
  1011b1:	5e                   	pop    %esi
  1011b2:	5f                   	pop    %edi
  1011b3:	5d                   	pop    %ebp
  1011b4:	c3                   	ret    
      empty = ip;
  }

  // Allocate fresh inode.
  if(empty == 0)
    panic("iget: no inodes");
  1011b5:	c7 04 24 ba 60 10 00 	movl   $0x1060ba,(%esp)
  1011bc:	e8 3f f7 ff ff       	call   100900 <panic>
  1011c1:	eb 0d                	jmp    1011d0 <readsb>
  1011c3:	90                   	nop
  1011c4:	90                   	nop
  1011c5:	90                   	nop
  1011c6:	90                   	nop
  1011c7:	90                   	nop
  1011c8:	90                   	nop
  1011c9:	90                   	nop
  1011ca:	90                   	nop
  1011cb:	90                   	nop
  1011cc:	90                   	nop
  1011cd:	90                   	nop
  1011ce:	90                   	nop
  1011cf:	90                   	nop

001011d0 <readsb>:
static void itrunc(struct inode*);

// Read the super block.
static void
readsb(int dev, struct superblock *sb)
{
  1011d0:	55                   	push   %ebp
  1011d1:	89 e5                	mov    %esp,%ebp
  1011d3:	83 ec 18             	sub    $0x18,%esp
  struct buf *bp;
  
  bp = bread(dev, 1);
  1011d6:	c7 44 24 04 01 00 00 	movl   $0x1,0x4(%esp)
  1011dd:	00 
static void itrunc(struct inode*);

// Read the super block.
static void
readsb(int dev, struct superblock *sb)
{
  1011de:	89 5d f8             	mov    %ebx,-0x8(%ebp)
  1011e1:	89 75 fc             	mov    %esi,-0x4(%ebp)
  1011e4:	89 d6                	mov    %edx,%esi
  struct buf *bp;
  
  bp = bread(dev, 1);
  1011e6:	89 04 24             	mov    %eax,(%esp)
  1011e9:	e8 72 ee ff ff       	call   100060 <bread>
  memmove(sb, bp->data, sizeof(*sb));
  1011ee:	89 34 24             	mov    %esi,(%esp)
  1011f1:	c7 44 24 08 0c 00 00 	movl   $0xc,0x8(%esp)
  1011f8:	00 
static void
readsb(int dev, struct superblock *sb)
{
  struct buf *bp;
  
  bp = bread(dev, 1);
  1011f9:	89 c3                	mov    %eax,%ebx
  memmove(sb, bp->data, sizeof(*sb));
  1011fb:	8d 40 18             	lea    0x18(%eax),%eax
  1011fe:	89 44 24 04          	mov    %eax,0x4(%esp)
  101202:	e8 a9 2e 00 00       	call   1040b0 <memmove>
  brelse(bp);
  101207:	89 1c 24             	mov    %ebx,(%esp)
  10120a:	e8 61 ef ff ff       	call   100170 <brelse>
}
  10120f:	8b 5d f8             	mov    -0x8(%ebp),%ebx
  101212:	8b 75 fc             	mov    -0x4(%ebp),%esi
  101215:	89 ec                	mov    %ebp,%esp
  101217:	5d                   	pop    %ebp
  101218:	c3                   	ret    
  101219:	8d b4 26 00 00 00 00 	lea    0x0(%esi,%eiz,1),%esi

00101220 <balloc>:
// Blocks. 

// Allocate a disk block.
static uint
balloc(uint dev)
{
  101220:	55                   	push   %ebp
  101221:	89 e5                	mov    %esp,%ebp
  101223:	57                   	push   %edi
  101224:	56                   	push   %esi
  101225:	53                   	push   %ebx
  101226:	83 ec 3c             	sub    $0x3c,%esp
  int b, bi, m;
  struct buf *bp;
  struct superblock sb;

  bp = 0;
  readsb(dev, &sb);
  101229:	8d 55 dc             	lea    -0x24(%ebp),%edx
// Blocks. 

// Allocate a disk block.
static uint
balloc(uint dev)
{
  10122c:	89 45 d0             	mov    %eax,-0x30(%ebp)
  int b, bi, m;
  struct buf *bp;
  struct superblock sb;

  bp = 0;
  readsb(dev, &sb);
  10122f:	e8 9c ff ff ff       	call   1011d0 <readsb>
  for(b = 0; b < sb.size; b += BPB){
  101234:	8b 45 dc             	mov    -0x24(%ebp),%eax
  101237:	85 c0                	test   %eax,%eax
  101239:	0f 84 9c 00 00 00    	je     1012db <balloc+0xbb>
  10123f:	c7 45 d4 00 00 00 00 	movl   $0x0,-0x2c(%ebp)
    bp = bread(dev, BBLOCK(b, sb.ninodes));
  101246:	8b 45 e4             	mov    -0x1c(%ebp),%eax
    for(bi = 0; bi < BPB; bi++){
  101249:	31 db                	xor    %ebx,%ebx
  struct superblock sb;

  bp = 0;
  readsb(dev, &sb);
  for(b = 0; b < sb.size; b += BPB){
    bp = bread(dev, BBLOCK(b, sb.ninodes));
  10124b:	8b 55 d4             	mov    -0x2c(%ebp),%edx
  10124e:	c1 e8 03             	shr    $0x3,%eax
  101251:	c1 fa 0c             	sar    $0xc,%edx
  101254:	8d 44 10 03          	lea    0x3(%eax,%edx,1),%eax
  101258:	89 44 24 04          	mov    %eax,0x4(%esp)
  10125c:	8b 45 d0             	mov    -0x30(%ebp),%eax
  10125f:	89 04 24             	mov    %eax,(%esp)
  101262:	e8 f9 ed ff ff       	call   100060 <bread>
  101267:	89 c6                	mov    %eax,%esi
  101269:	eb 10                	jmp    10127b <balloc+0x5b>
  10126b:	90                   	nop
  10126c:	8d 74 26 00          	lea    0x0(%esi,%eiz,1),%esi
    for(bi = 0; bi < BPB; bi++){
  101270:	83 c3 01             	add    $0x1,%ebx
  101273:	81 fb 00 10 00 00    	cmp    $0x1000,%ebx
  101279:	74 45                	je     1012c0 <balloc+0xa0>
      m = 1 << (bi % 8);
  10127b:	89 d9                	mov    %ebx,%ecx
  10127d:	b8 01 00 00 00       	mov    $0x1,%eax
  101282:	83 e1 07             	and    $0x7,%ecx
  101285:	d3 e0                	shl    %cl,%eax
  101287:	89 c1                	mov    %eax,%ecx
      if((bp->data[bi/8] & m) == 0){  // Is block free?
  101289:	89 d8                	mov    %ebx,%eax
  10128b:	c1 f8 03             	sar    $0x3,%eax
  10128e:	0f b6 54 06 18       	movzbl 0x18(%esi,%eax,1),%edx
  101293:	0f b6 fa             	movzbl %dl,%edi
  101296:	85 cf                	test   %ecx,%edi
  101298:	75 d6                	jne    101270 <balloc+0x50>
        bp->data[bi/8] |= m;  // Mark block in use on disk.
  10129a:	09 d1                	or     %edx,%ecx
  10129c:	88 4c 06 18          	mov    %cl,0x18(%esi,%eax,1)
        bwrite(bp);
  1012a0:	89 34 24             	mov    %esi,(%esp)
  1012a3:	e8 98 ee ff ff       	call   100140 <bwrite>
        brelse(bp);
  1012a8:	89 34 24             	mov    %esi,(%esp)
  1012ab:	e8 c0 ee ff ff       	call   100170 <brelse>
        return b + bi;
  1012b0:	8b 45 d4             	mov    -0x2c(%ebp),%eax
      }
    }
    brelse(bp);
  }
  panic("balloc: out of blocks");
}
  1012b3:	83 c4 3c             	add    $0x3c,%esp
      m = 1 << (bi % 8);
      if((bp->data[bi/8] & m) == 0){  // Is block free?
        bp->data[bi/8] |= m;  // Mark block in use on disk.
        bwrite(bp);
        brelse(bp);
        return b + bi;
  1012b6:	01 d8                	add    %ebx,%eax
      }
    }
    brelse(bp);
  }
  panic("balloc: out of blocks");
}
  1012b8:	5b                   	pop    %ebx
  1012b9:	5e                   	pop    %esi
  1012ba:	5f                   	pop    %edi
  1012bb:	5d                   	pop    %ebp
  1012bc:	c3                   	ret    
  1012bd:	8d 76 00             	lea    0x0(%esi),%esi
        bwrite(bp);
        brelse(bp);
        return b + bi;
      }
    }
    brelse(bp);
  1012c0:	89 34 24             	mov    %esi,(%esp)
  1012c3:	e8 a8 ee ff ff       	call   100170 <brelse>
  struct buf *bp;
  struct superblock sb;

  bp = 0;
  readsb(dev, &sb);
  for(b = 0; b < sb.size; b += BPB){
  1012c8:	81 45 d4 00 10 00 00 	addl   $0x1000,-0x2c(%ebp)
  1012cf:	8b 45 d4             	mov    -0x2c(%ebp),%eax
  1012d2:	39 45 dc             	cmp    %eax,-0x24(%ebp)
  1012d5:	0f 87 6b ff ff ff    	ja     101246 <balloc+0x26>
        return b + bi;
      }
    }
    brelse(bp);
  }
  panic("balloc: out of blocks");
  1012db:	c7 04 24 ca 60 10 00 	movl   $0x1060ca,(%esp)
  1012e2:	e8 19 f6 ff ff       	call   100900 <panic>
  1012e7:	89 f6                	mov    %esi,%esi
  1012e9:	8d bc 27 00 00 00 00 	lea    0x0(%edi,%eiz,1),%edi

001012f0 <bmap>:

// Return the disk block address of the nth block in inode ip.
// If there is no such block, alloc controls whether one is allocated.
static uint
bmap(struct inode *ip, uint bn, int alloc)
{
  1012f0:	55                   	push   %ebp
  1012f1:	89 e5                	mov    %esp,%ebp
  1012f3:	83 ec 38             	sub    $0x38,%esp
  uint addr, *a;
  struct buf *bp;

  if(bn < NDIRECT){
  1012f6:	83 fa 0b             	cmp    $0xb,%edx

// Return the disk block address of the nth block in inode ip.
// If there is no such block, alloc controls whether one is allocated.
static uint
bmap(struct inode *ip, uint bn, int alloc)
{
  1012f9:	89 5d f4             	mov    %ebx,-0xc(%ebp)
  1012fc:	89 c3                	mov    %eax,%ebx
  1012fe:	89 75 f8             	mov    %esi,-0x8(%ebp)
  101301:	89 ce                	mov    %ecx,%esi
  101303:	89 7d fc             	mov    %edi,-0x4(%ebp)
  uint addr, *a;
  struct buf *bp;

  if(bn < NDIRECT){
  101306:	77 28                	ja     101330 <bmap+0x40>
    if((addr = ip->addrs[bn]) == 0){
  101308:	8d 7a 04             	lea    0x4(%edx),%edi
  10130b:	8b 44 b8 0c          	mov    0xc(%eax,%edi,4),%eax
  10130f:	85 c0                	test   %eax,%eax
  101311:	75 09                	jne    10131c <bmap+0x2c>
      if(!alloc)
  101313:	85 c9                	test   %ecx,%ecx
        return -1;
  101315:	b8 ff ff ff ff       	mov    $0xffffffff,%eax
  uint addr, *a;
  struct buf *bp;

  if(bn < NDIRECT){
    if((addr = ip->addrs[bn]) == 0){
      if(!alloc)
  10131a:	75 74                	jne    101390 <bmap+0xa0>
    brelse(bp);
    return addr;
  }

  panic("bmap: out of range");
}
  10131c:	8b 5d f4             	mov    -0xc(%ebp),%ebx
  10131f:	8b 75 f8             	mov    -0x8(%ebp),%esi
  101322:	8b 7d fc             	mov    -0x4(%ebp),%edi
  101325:	89 ec                	mov    %ebp,%esp
  101327:	5d                   	pop    %ebp
  101328:	c3                   	ret    
  101329:	8d b4 26 00 00 00 00 	lea    0x0(%esi,%eiz,1),%esi
        return -1;
      ip->addrs[bn] = addr = balloc(ip->dev);
    }
    return addr;
  }
  bn -= NDIRECT;
  101330:	8d 7a f4             	lea    -0xc(%edx),%edi

  if(bn < NINDIRECT){
  101333:	83 ff 7f             	cmp    $0x7f,%edi
  101336:	0f 87 a7 00 00 00    	ja     1013e3 <bmap+0xf3>
    // Load indirect block, allocating if necessary.
    if((addr = ip->addrs[INDIRECT]) == 0){
  10133c:	8b 40 4c             	mov    0x4c(%eax),%eax
  10133f:	85 c0                	test   %eax,%eax
  101341:	75 13                	jne    101356 <bmap+0x66>
      if(!alloc)
  101343:	85 c9                	test   %ecx,%ecx
        return -1;
  101345:	b8 ff ff ff ff       	mov    $0xffffffff,%eax
  bn -= NDIRECT;

  if(bn < NINDIRECT){
    // Load indirect block, allocating if necessary.
    if((addr = ip->addrs[INDIRECT]) == 0){
      if(!alloc)
  10134a:	74 d0                	je     10131c <bmap+0x2c>
        return -1;
      ip->addrs[INDIRECT] = addr = balloc(ip->dev);
  10134c:	8b 03                	mov    (%ebx),%eax
  10134e:	e8 cd fe ff ff       	call   101220 <balloc>
  101353:	89 43 4c             	mov    %eax,0x4c(%ebx)
    }
    bp = bread(ip->dev, addr);
  101356:	89 44 24 04          	mov    %eax,0x4(%esp)
  10135a:	8b 03                	mov    (%ebx),%eax
  10135c:	89 04 24             	mov    %eax,(%esp)
  10135f:	e8 fc ec ff ff       	call   100060 <bread>
    a = (uint*)bp->data;
  
    if((addr = a[bn]) == 0){
  101364:	8d 7c b8 18          	lea    0x18(%eax,%edi,4),%edi
    if((addr = ip->addrs[INDIRECT]) == 0){
      if(!alloc)
        return -1;
      ip->addrs[INDIRECT] = addr = balloc(ip->dev);
    }
    bp = bread(ip->dev, addr);
  101368:	89 c2                	mov    %eax,%edx
    a = (uint*)bp->data;
  
    if((addr = a[bn]) == 0){
  10136a:	8b 07                	mov    (%edi),%eax
  10136c:	85 c0                	test   %eax,%eax
  10136e:	75 58                	jne    1013c8 <bmap+0xd8>
      if(!alloc){
  101370:	85 f6                	test   %esi,%esi
  101372:	75 34                	jne    1013a8 <bmap+0xb8>
        brelse(bp);
  101374:	89 14 24             	mov    %edx,(%esp)
  101377:	e8 f4 ed ff ff       	call   100170 <brelse>
    brelse(bp);
    return addr;
  }

  panic("bmap: out of range");
}
  10137c:	8b 5d f4             	mov    -0xc(%ebp),%ebx
    a = (uint*)bp->data;
  
    if((addr = a[bn]) == 0){
      if(!alloc){
        brelse(bp);
        return -1;
  10137f:	b8 ff ff ff ff       	mov    $0xffffffff,%eax
    brelse(bp);
    return addr;
  }

  panic("bmap: out of range");
}
  101384:	8b 75 f8             	mov    -0x8(%ebp),%esi
  101387:	8b 7d fc             	mov    -0x4(%ebp),%edi
  10138a:	89 ec                	mov    %ebp,%esp
  10138c:	5d                   	pop    %ebp
  10138d:	c3                   	ret    
  10138e:	66 90                	xchg   %ax,%ax

  if(bn < NDIRECT){
    if((addr = ip->addrs[bn]) == 0){
      if(!alloc)
        return -1;
      ip->addrs[bn] = addr = balloc(ip->dev);
  101390:	8b 03                	mov    (%ebx),%eax
  101392:	e8 89 fe ff ff       	call   101220 <balloc>
  101397:	89 44 bb 0c          	mov    %eax,0xc(%ebx,%edi,4)
    brelse(bp);
    return addr;
  }

  panic("bmap: out of range");
}
  10139b:	8b 5d f4             	mov    -0xc(%ebp),%ebx
  10139e:	8b 75 f8             	mov    -0x8(%ebp),%esi
  1013a1:	8b 7d fc             	mov    -0x4(%ebp),%edi
  1013a4:	89 ec                	mov    %ebp,%esp
  1013a6:	5d                   	pop    %ebp
  1013a7:	c3                   	ret    
    if((addr = a[bn]) == 0){
      if(!alloc){
        brelse(bp);
        return -1;
      }
      a[bn] = addr = balloc(ip->dev);
  1013a8:	8b 03                	mov    (%ebx),%eax
  1013aa:	89 55 e0             	mov    %edx,-0x20(%ebp)
  1013ad:	e8 6e fe ff ff       	call   101220 <balloc>
      bwrite(bp);
  1013b2:	8b 55 e0             	mov    -0x20(%ebp),%edx
    if((addr = a[bn]) == 0){
      if(!alloc){
        brelse(bp);
        return -1;
      }
      a[bn] = addr = balloc(ip->dev);
  1013b5:	89 07                	mov    %eax,(%edi)
      bwrite(bp);
  1013b7:	89 14 24             	mov    %edx,(%esp)
  1013ba:	89 45 e4             	mov    %eax,-0x1c(%ebp)
  1013bd:	e8 7e ed ff ff       	call   100140 <bwrite>
  1013c2:	8b 55 e0             	mov    -0x20(%ebp),%edx
  1013c5:	8b 45 e4             	mov    -0x1c(%ebp),%eax
    }
    brelse(bp);
  1013c8:	89 45 e4             	mov    %eax,-0x1c(%ebp)
  1013cb:	89 14 24             	mov    %edx,(%esp)
  1013ce:	e8 9d ed ff ff       	call   100170 <brelse>
    return addr;
  1013d3:	8b 45 e4             	mov    -0x1c(%ebp),%eax
  }

  panic("bmap: out of range");
}
  1013d6:	8b 5d f4             	mov    -0xc(%ebp),%ebx
  1013d9:	8b 75 f8             	mov    -0x8(%ebp),%esi
  1013dc:	8b 7d fc             	mov    -0x4(%ebp),%edi
  1013df:	89 ec                	mov    %ebp,%esp
  1013e1:	5d                   	pop    %ebp
  1013e2:	c3                   	ret    
    }
    brelse(bp);
    return addr;
  }

  panic("bmap: out of range");
  1013e3:	c7 04 24 e0 60 10 00 	movl   $0x1060e0,(%esp)
  1013ea:	e8 11 f5 ff ff       	call   100900 <panic>
  1013ef:	90                   	nop

001013f0 <bfree>:
}

// Free a disk block.
static void
bfree(int dev, uint b)
{
  1013f0:	55                   	push   %ebp
  1013f1:	89 e5                	mov    %esp,%ebp
  1013f3:	57                   	push   %edi
  1013f4:	56                   	push   %esi
  1013f5:	89 c6                	mov    %eax,%esi
  1013f7:	53                   	push   %ebx
  1013f8:	89 d3                	mov    %edx,%ebx
  1013fa:	83 ec 2c             	sub    $0x2c,%esp
static void
bzero(int dev, int bno)
{
  struct buf *bp;
  
  bp = bread(dev, bno);
  1013fd:	89 54 24 04          	mov    %edx,0x4(%esp)
  101401:	89 04 24             	mov    %eax,(%esp)
  101404:	e8 57 ec ff ff       	call   100060 <bread>
  memset(bp->data, 0, BSIZE);
  101409:	c7 44 24 08 00 02 00 	movl   $0x200,0x8(%esp)
  101410:	00 
  101411:	c7 44 24 04 00 00 00 	movl   $0x0,0x4(%esp)
  101418:	00 
static void
bzero(int dev, int bno)
{
  struct buf *bp;
  
  bp = bread(dev, bno);
  101419:	89 c7                	mov    %eax,%edi
  memset(bp->data, 0, BSIZE);
  10141b:	8d 40 18             	lea    0x18(%eax),%eax
  10141e:	89 04 24             	mov    %eax,(%esp)
  101421:	e8 fa 2b 00 00       	call   104020 <memset>
  bwrite(bp);
  101426:	89 3c 24             	mov    %edi,(%esp)
  101429:	e8 12 ed ff ff       	call   100140 <bwrite>
  brelse(bp);
  10142e:	89 3c 24             	mov    %edi,(%esp)
  101431:	e8 3a ed ff ff       	call   100170 <brelse>
  struct superblock sb;
  int bi, m;

  bzero(dev, b);

  readsb(dev, &sb);
  101436:	89 f0                	mov    %esi,%eax
  101438:	8d 55 dc             	lea    -0x24(%ebp),%edx
  10143b:	e8 90 fd ff ff       	call   1011d0 <readsb>
  bp = bread(dev, BBLOCK(b, sb.ninodes));
  101440:	8b 45 e4             	mov    -0x1c(%ebp),%eax
  101443:	89 da                	mov    %ebx,%edx
  101445:	c1 ea 0c             	shr    $0xc,%edx
  101448:	89 34 24             	mov    %esi,(%esp)
  bi = b % BPB;
  m = 1 << (bi % 8);
  10144b:	be 01 00 00 00       	mov    $0x1,%esi
  int bi, m;

  bzero(dev, b);

  readsb(dev, &sb);
  bp = bread(dev, BBLOCK(b, sb.ninodes));
  101450:	c1 e8 03             	shr    $0x3,%eax
  101453:	8d 44 10 03          	lea    0x3(%eax,%edx,1),%eax
  101457:	89 44 24 04          	mov    %eax,0x4(%esp)
  10145b:	e8 00 ec ff ff       	call   100060 <bread>
  bi = b % BPB;
  101460:	89 da                	mov    %ebx,%edx
  m = 1 << (bi % 8);
  101462:	89 d9                	mov    %ebx,%ecx

  bzero(dev, b);

  readsb(dev, &sb);
  bp = bread(dev, BBLOCK(b, sb.ninodes));
  bi = b % BPB;
  101464:	81 e2 ff 0f 00 00    	and    $0xfff,%edx
  m = 1 << (bi % 8);
  10146a:	83 e1 07             	and    $0x7,%ecx
  if((bp->data[bi/8] & m) == 0)
  10146d:	c1 fa 03             	sar    $0x3,%edx
  bzero(dev, b);

  readsb(dev, &sb);
  bp = bread(dev, BBLOCK(b, sb.ninodes));
  bi = b % BPB;
  m = 1 << (bi % 8);
  101470:	d3 e6                	shl    %cl,%esi
  if((bp->data[bi/8] & m) == 0)
  101472:	0f b6 4c 10 18       	movzbl 0x18(%eax,%edx,1),%ecx
  int bi, m;

  bzero(dev, b);

  readsb(dev, &sb);
  bp = bread(dev, BBLOCK(b, sb.ninodes));
  101477:	89 c7                	mov    %eax,%edi
  bi = b % BPB;
  m = 1 << (bi % 8);
  if((bp->data[bi/8] & m) == 0)
  101479:	0f b6 c1             	movzbl %cl,%eax
  10147c:	85 f0                	test   %esi,%eax
  10147e:	74 22                	je     1014a2 <bfree+0xb2>
    panic("freeing free block");
  bp->data[bi/8] &= ~m;  // Mark block free on disk.
  101480:	89 f0                	mov    %esi,%eax
  101482:	f7 d0                	not    %eax
  101484:	21 c8                	and    %ecx,%eax
  101486:	88 44 17 18          	mov    %al,0x18(%edi,%edx,1)
  bwrite(bp);
  10148a:	89 3c 24             	mov    %edi,(%esp)
  10148d:	e8 ae ec ff ff       	call   100140 <bwrite>
  brelse(bp);
  101492:	89 3c 24             	mov    %edi,(%esp)
  101495:	e8 d6 ec ff ff       	call   100170 <brelse>
}
  10149a:	83 c4 2c             	add    $0x2c,%esp
  10149d:	5b                   	pop    %ebx
  10149e:	5e                   	pop    %esi
  10149f:	5f                   	pop    %edi
  1014a0:	5d                   	pop    %ebp
  1014a1:	c3                   	ret    
  readsb(dev, &sb);
  bp = bread(dev, BBLOCK(b, sb.ninodes));
  bi = b % BPB;
  m = 1 << (bi % 8);
  if((bp->data[bi/8] & m) == 0)
    panic("freeing free block");
  1014a2:	c7 04 24 f3 60 10 00 	movl   $0x1060f3,(%esp)
  1014a9:	e8 52 f4 ff ff       	call   100900 <panic>
  1014ae:	66 90                	xchg   %ax,%ax

001014b0 <iinit>:
  struct inode inode[NINODE];
} icache;

void
iinit(void)
{
  1014b0:	55                   	push   %ebp
  1014b1:	89 e5                	mov    %esp,%ebp
  1014b3:	83 ec 18             	sub    $0x18,%esp
  initlock(&icache.lock, "icache.lock");
  1014b6:	c7 44 24 04 06 61 10 	movl   $0x106106,0x4(%esp)
  1014bd:	00 
  1014be:	c7 04 24 a0 9a 10 00 	movl   $0x109aa0,(%esp)
  1014c5:	e8 26 29 00 00       	call   103df0 <initlock>
}
  1014ca:	c9                   	leave  
  1014cb:	c3                   	ret    
  1014cc:	8d 74 26 00          	lea    0x0(%esi,%eiz,1),%esi

001014d0 <idup>:

// Increment reference count for ip.
// Returns ip to enable ip = idup(ip1) idiom.
struct inode*
idup(struct inode *ip)
{
  1014d0:	55                   	push   %ebp
  1014d1:	89 e5                	mov    %esp,%ebp
  1014d3:	53                   	push   %ebx
  1014d4:	83 ec 14             	sub    $0x14,%esp
  1014d7:	8b 5d 08             	mov    0x8(%ebp),%ebx
  acquire(&icache.lock);
  1014da:	c7 04 24 a0 9a 10 00 	movl   $0x109aa0,(%esp)
  1014e1:	e8 0a 2a 00 00       	call   103ef0 <acquire>
  ip->ref++;
  1014e6:	83 43 08 01          	addl   $0x1,0x8(%ebx)
  release(&icache.lock);
  1014ea:	c7 04 24 a0 9a 10 00 	movl   $0x109aa0,(%esp)
  1014f1:	e8 ea 2a 00 00       	call   103fe0 <release>
  return ip;
}
  1014f6:	89 d8                	mov    %ebx,%eax
  1014f8:	83 c4 14             	add    $0x14,%esp
  1014fb:	5b                   	pop    %ebx
  1014fc:	5d                   	pop    %ebp
  1014fd:	c3                   	ret    
  1014fe:	66 90                	xchg   %ax,%ax

00101500 <ilock>:

// Lock the given inode.
void
ilock(struct inode *ip)
{
  101500:	55                   	push   %ebp
  101501:	89 e5                	mov    %esp,%ebp
  101503:	56                   	push   %esi
  101504:	53                   	push   %ebx
  101505:	83 ec 10             	sub    $0x10,%esp
  101508:	8b 5d 08             	mov    0x8(%ebp),%ebx
  struct buf *bp;
  struct dinode *dip;

  if(ip == 0 || ip->ref < 1)
  10150b:	85 db                	test   %ebx,%ebx
  10150d:	0f 84 e5 00 00 00    	je     1015f8 <ilock+0xf8>
  101513:	8b 53 08             	mov    0x8(%ebx),%edx
  101516:	85 d2                	test   %edx,%edx
  101518:	0f 8e da 00 00 00    	jle    1015f8 <ilock+0xf8>
    panic("ilock");

  acquire(&icache.lock);
  10151e:	c7 04 24 a0 9a 10 00 	movl   $0x109aa0,(%esp)
  101525:	e8 c6 29 00 00       	call   103ef0 <acquire>
  while(ip->flags & I_BUSY)
  10152a:	8b 43 0c             	mov    0xc(%ebx),%eax
  10152d:	a8 01                	test   $0x1,%al
  10152f:	74 1e                	je     10154f <ilock+0x4f>
  101531:	8d b4 26 00 00 00 00 	lea    0x0(%esi,%eiz,1),%esi
    sleep(ip, &icache.lock);
  101538:	c7 44 24 04 a0 9a 10 	movl   $0x109aa0,0x4(%esp)
  10153f:	00 
  101540:	89 1c 24             	mov    %ebx,(%esp)
  101543:	e8 98 23 00 00       	call   1038e0 <sleep>

  if(ip == 0 || ip->ref < 1)
    panic("ilock");

  acquire(&icache.lock);
  while(ip->flags & I_BUSY)
  101548:	8b 43 0c             	mov    0xc(%ebx),%eax
  10154b:	a8 01                	test   $0x1,%al
  10154d:	75 e9                	jne    101538 <ilock+0x38>
    sleep(ip, &icache.lock);
  ip->flags |= I_BUSY;
  10154f:	83 c8 01             	or     $0x1,%eax
  101552:	89 43 0c             	mov    %eax,0xc(%ebx)
  release(&icache.lock);
  101555:	c7 04 24 a0 9a 10 00 	movl   $0x109aa0,(%esp)
  10155c:	e8 7f 2a 00 00       	call   103fe0 <release>

  if(!(ip->flags & I_VALID)){
  101561:	f6 43 0c 02          	testb  $0x2,0xc(%ebx)
  101565:	74 09                	je     101570 <ilock+0x70>
    brelse(bp);
    ip->flags |= I_VALID;
    if(ip->type == 0)
      panic("ilock: no type");
  }
}
  101567:	83 c4 10             	add    $0x10,%esp
  10156a:	5b                   	pop    %ebx
  10156b:	5e                   	pop    %esi
  10156c:	5d                   	pop    %ebp
  10156d:	c3                   	ret    
  10156e:	66 90                	xchg   %ax,%ax
    sleep(ip, &icache.lock);
  ip->flags |= I_BUSY;
  release(&icache.lock);

  if(!(ip->flags & I_VALID)){
    bp = bread(ip->dev, IBLOCK(ip->inum));
  101570:	8b 43 04             	mov    0x4(%ebx),%eax
  101573:	c1 e8 03             	shr    $0x3,%eax
  101576:	83 c0 02             	add    $0x2,%eax
  101579:	89 44 24 04          	mov    %eax,0x4(%esp)
  10157d:	8b 03                	mov    (%ebx),%eax
  10157f:	89 04 24             	mov    %eax,(%esp)
  101582:	e8 d9 ea ff ff       	call   100060 <bread>
  101587:	89 c6                	mov    %eax,%esi
    dip = (struct dinode*)bp->data + ip->inum%IPB;
  101589:	8b 43 04             	mov    0x4(%ebx),%eax
  10158c:	83 e0 07             	and    $0x7,%eax
  10158f:	c1 e0 06             	shl    $0x6,%eax
  101592:	8d 44 06 18          	lea    0x18(%esi,%eax,1),%eax
    ip->type = dip->type;
  101596:	0f b7 10             	movzwl (%eax),%edx
  101599:	66 89 53 10          	mov    %dx,0x10(%ebx)
    ip->major = dip->major;
  10159d:	0f b7 50 02          	movzwl 0x2(%eax),%edx
  1015a1:	66 89 53 12          	mov    %dx,0x12(%ebx)
    ip->minor = dip->minor;
  1015a5:	0f b7 50 04          	movzwl 0x4(%eax),%edx
  1015a9:	66 89 53 14          	mov    %dx,0x14(%ebx)
    ip->nlink = dip->nlink;
  1015ad:	0f b7 50 06          	movzwl 0x6(%eax),%edx
  1015b1:	66 89 53 16          	mov    %dx,0x16(%ebx)
    ip->size = dip->size;
  1015b5:	8b 50 08             	mov    0x8(%eax),%edx
    memmove(ip->addrs, dip->addrs, sizeof(ip->addrs));
  1015b8:	83 c0 0c             	add    $0xc,%eax
    dip = (struct dinode*)bp->data + ip->inum%IPB;
    ip->type = dip->type;
    ip->major = dip->major;
    ip->minor = dip->minor;
    ip->nlink = dip->nlink;
    ip->size = dip->size;
  1015bb:	89 53 18             	mov    %edx,0x18(%ebx)
    memmove(ip->addrs, dip->addrs, sizeof(ip->addrs));
  1015be:	89 44 24 04          	mov    %eax,0x4(%esp)
  1015c2:	8d 43 1c             	lea    0x1c(%ebx),%eax
  1015c5:	c7 44 24 08 34 00 00 	movl   $0x34,0x8(%esp)
  1015cc:	00 
  1015cd:	89 04 24             	mov    %eax,(%esp)
  1015d0:	e8 db 2a 00 00       	call   1040b0 <memmove>
    brelse(bp);
  1015d5:	89 34 24             	mov    %esi,(%esp)
  1015d8:	e8 93 eb ff ff       	call   100170 <brelse>
    ip->flags |= I_VALID;
  1015dd:	83 4b 0c 02          	orl    $0x2,0xc(%ebx)
    if(ip->type == 0)
  1015e1:	66 83 7b 10 00       	cmpw   $0x0,0x10(%ebx)
  1015e6:	0f 85 7b ff ff ff    	jne    101567 <ilock+0x67>
      panic("ilock: no type");
  1015ec:	c7 04 24 18 61 10 00 	movl   $0x106118,(%esp)
  1015f3:	e8 08 f3 ff ff       	call   100900 <panic>
{
  struct buf *bp;
  struct dinode *dip;

  if(ip == 0 || ip->ref < 1)
    panic("ilock");
  1015f8:	c7 04 24 12 61 10 00 	movl   $0x106112,(%esp)
  1015ff:	e8 fc f2 ff ff       	call   100900 <panic>
  101604:	8d b6 00 00 00 00    	lea    0x0(%esi),%esi
  10160a:	8d bf 00 00 00 00    	lea    0x0(%edi),%edi

00101610 <iunlock>:
}

// Unlock the given inode.
void
iunlock(struct inode *ip)
{
  101610:	55                   	push   %ebp
  101611:	89 e5                	mov    %esp,%ebp
  101613:	53                   	push   %ebx
  101614:	83 ec 14             	sub    $0x14,%esp
  101617:	8b 5d 08             	mov    0x8(%ebp),%ebx
  if(ip == 0 || !(ip->flags & I_BUSY) || ip->ref < 1)
  10161a:	85 db                	test   %ebx,%ebx
  10161c:	74 36                	je     101654 <iunlock+0x44>
  10161e:	f6 43 0c 01          	testb  $0x1,0xc(%ebx)
  101622:	74 30                	je     101654 <iunlock+0x44>
  101624:	8b 4b 08             	mov    0x8(%ebx),%ecx
  101627:	85 c9                	test   %ecx,%ecx
  101629:	7e 29                	jle    101654 <iunlock+0x44>
    panic("iunlock");

  acquire(&icache.lock);
  10162b:	c7 04 24 a0 9a 10 00 	movl   $0x109aa0,(%esp)
  101632:	e8 b9 28 00 00       	call   103ef0 <acquire>
  ip->flags &= ~I_BUSY;
  101637:	83 63 0c fe          	andl   $0xfffffffe,0xc(%ebx)
  wakeup(ip);
  10163b:	89 1c 24             	mov    %ebx,(%esp)
  10163e:	e8 6d 23 00 00       	call   1039b0 <wakeup>
  release(&icache.lock);
  101643:	c7 45 08 a0 9a 10 00 	movl   $0x109aa0,0x8(%ebp)
}
  10164a:	83 c4 14             	add    $0x14,%esp
  10164d:	5b                   	pop    %ebx
  10164e:	5d                   	pop    %ebp
    panic("iunlock");

  acquire(&icache.lock);
  ip->flags &= ~I_BUSY;
  wakeup(ip);
  release(&icache.lock);
  10164f:	e9 8c 29 00 00       	jmp    103fe0 <release>
// Unlock the given inode.
void
iunlock(struct inode *ip)
{
  if(ip == 0 || !(ip->flags & I_BUSY) || ip->ref < 1)
    panic("iunlock");
  101654:	c7 04 24 27 61 10 00 	movl   $0x106127,(%esp)
  10165b:	e8 a0 f2 ff ff       	call   100900 <panic>

00101660 <ialloc>:
}

// Allocate a new inode with the given type on device dev.
struct inode*
ialloc(uint dev, short type)
{
  101660:	55                   	push   %ebp
  101661:	89 e5                	mov    %esp,%ebp
  101663:	57                   	push   %edi
  101664:	56                   	push   %esi
  101665:	53                   	push   %ebx
  101666:	83 ec 3c             	sub    $0x3c,%esp
  101669:	0f b7 45 0c          	movzwl 0xc(%ebp),%eax
  int inum;
  struct buf *bp;
  struct dinode *dip;
  struct superblock sb;

  readsb(dev, &sb);
  10166d:	8d 55 dc             	lea    -0x24(%ebp),%edx
}

// Allocate a new inode with the given type on device dev.
struct inode*
ialloc(uint dev, short type)
{
  101670:	66 89 45 d6          	mov    %ax,-0x2a(%ebp)
  int inum;
  struct buf *bp;
  struct dinode *dip;
  struct superblock sb;

  readsb(dev, &sb);
  101674:	8b 45 08             	mov    0x8(%ebp),%eax
  101677:	e8 54 fb ff ff       	call   1011d0 <readsb>
  for(inum = 1; inum < sb.ninodes; inum++){  // loop over inode blocks
  10167c:	83 7d e4 01          	cmpl   $0x1,-0x1c(%ebp)
  101680:	0f 86 96 00 00 00    	jbe    10171c <ialloc+0xbc>
  101686:	be 01 00 00 00       	mov    $0x1,%esi
  10168b:	bb 01 00 00 00       	mov    $0x1,%ebx
  101690:	eb 18                	jmp    1016aa <ialloc+0x4a>
  101692:	8d b6 00 00 00 00    	lea    0x0(%esi),%esi
  101698:	83 c3 01             	add    $0x1,%ebx
      dip->type = type;
      bwrite(bp);   // mark it allocated on the disk
      brelse(bp);
      return iget(dev, inum);
    }
    brelse(bp);
  10169b:	89 3c 24             	mov    %edi,(%esp)
  struct buf *bp;
  struct dinode *dip;
  struct superblock sb;

  readsb(dev, &sb);
  for(inum = 1; inum < sb.ninodes; inum++){  // loop over inode blocks
  10169e:	89 de                	mov    %ebx,%esi
      dip->type = type;
      bwrite(bp);   // mark it allocated on the disk
      brelse(bp);
      return iget(dev, inum);
    }
    brelse(bp);
  1016a0:	e8 cb ea ff ff       	call   100170 <brelse>
  struct buf *bp;
  struct dinode *dip;
  struct superblock sb;

  readsb(dev, &sb);
  for(inum = 1; inum < sb.ninodes; inum++){  // loop over inode blocks
  1016a5:	39 5d e4             	cmp    %ebx,-0x1c(%ebp)
  1016a8:	76 72                	jbe    10171c <ialloc+0xbc>
    bp = bread(dev, IBLOCK(inum));
  1016aa:	89 f0                	mov    %esi,%eax
  1016ac:	c1 e8 03             	shr    $0x3,%eax
  1016af:	83 c0 02             	add    $0x2,%eax
  1016b2:	89 44 24 04          	mov    %eax,0x4(%esp)
  1016b6:	8b 45 08             	mov    0x8(%ebp),%eax
  1016b9:	89 04 24             	mov    %eax,(%esp)
  1016bc:	e8 9f e9 ff ff       	call   100060 <bread>
  1016c1:	89 c7                	mov    %eax,%edi
    dip = (struct dinode*)bp->data + inum%IPB;
  1016c3:	89 f0                	mov    %esi,%eax
  1016c5:	83 e0 07             	and    $0x7,%eax
  1016c8:	c1 e0 06             	shl    $0x6,%eax
  1016cb:	8d 54 07 18          	lea    0x18(%edi,%eax,1),%edx
    if(dip->type == 0){  // a free inode
  1016cf:	66 83 3a 00          	cmpw   $0x0,(%edx)
  1016d3:	75 c3                	jne    101698 <ialloc+0x38>
      memset(dip, 0, sizeof(*dip));
  1016d5:	89 14 24             	mov    %edx,(%esp)
  1016d8:	89 55 d0             	mov    %edx,-0x30(%ebp)
  1016db:	c7 44 24 08 40 00 00 	movl   $0x40,0x8(%esp)
  1016e2:	00 
  1016e3:	c7 44 24 04 00 00 00 	movl   $0x0,0x4(%esp)
  1016ea:	00 
  1016eb:	e8 30 29 00 00       	call   104020 <memset>
      dip->type = type;
  1016f0:	8b 55 d0             	mov    -0x30(%ebp),%edx
  1016f3:	0f b7 45 d6          	movzwl -0x2a(%ebp),%eax
  1016f7:	66 89 02             	mov    %ax,(%edx)
      bwrite(bp);   // mark it allocated on the disk
  1016fa:	89 3c 24             	mov    %edi,(%esp)
  1016fd:	e8 3e ea ff ff       	call   100140 <bwrite>
      brelse(bp);
  101702:	89 3c 24             	mov    %edi,(%esp)
  101705:	e8 66 ea ff ff       	call   100170 <brelse>
      return iget(dev, inum);
  10170a:	8b 45 08             	mov    0x8(%ebp),%eax
  10170d:	89 f2                	mov    %esi,%edx
  10170f:	e8 fc f9 ff ff       	call   101110 <iget>
    }
    brelse(bp);
  }
  panic("ialloc: no inodes");
}
  101714:	83 c4 3c             	add    $0x3c,%esp
  101717:	5b                   	pop    %ebx
  101718:	5e                   	pop    %esi
  101719:	5f                   	pop    %edi
  10171a:	5d                   	pop    %ebp
  10171b:	c3                   	ret    
      brelse(bp);
      return iget(dev, inum);
    }
    brelse(bp);
  }
  panic("ialloc: no inodes");
  10171c:	c7 04 24 2f 61 10 00 	movl   $0x10612f,(%esp)
  101723:	e8 d8 f1 ff ff       	call   100900 <panic>
  101728:	90                   	nop
  101729:	8d b4 26 00 00 00 00 	lea    0x0(%esi,%eiz,1),%esi

00101730 <iupdate>:
}

// Copy inode, which has changed, from memory to disk.
void
iupdate(struct inode *ip)
{
  101730:	55                   	push   %ebp
  101731:	89 e5                	mov    %esp,%ebp
  101733:	56                   	push   %esi
  101734:	53                   	push   %ebx
  101735:	83 ec 10             	sub    $0x10,%esp
  101738:	8b 5d 08             	mov    0x8(%ebp),%ebx
  struct buf *bp;
  struct dinode *dip;

  bp = bread(ip->dev, IBLOCK(ip->inum));
  10173b:	8b 43 04             	mov    0x4(%ebx),%eax
  10173e:	c1 e8 03             	shr    $0x3,%eax
  101741:	83 c0 02             	add    $0x2,%eax
  101744:	89 44 24 04          	mov    %eax,0x4(%esp)
  101748:	8b 03                	mov    (%ebx),%eax
  10174a:	89 04 24             	mov    %eax,(%esp)
  10174d:	e8 0e e9 ff ff       	call   100060 <bread>
  dip = (struct dinode*)bp->data + ip->inum%IPB;
  dip->type = ip->type;
  101752:	0f b7 53 10          	movzwl 0x10(%ebx),%edx
iupdate(struct inode *ip)
{
  struct buf *bp;
  struct dinode *dip;

  bp = bread(ip->dev, IBLOCK(ip->inum));
  101756:	89 c6                	mov    %eax,%esi
  dip = (struct dinode*)bp->data + ip->inum%IPB;
  101758:	8b 43 04             	mov    0x4(%ebx),%eax
  10175b:	83 e0 07             	and    $0x7,%eax
  10175e:	c1 e0 06             	shl    $0x6,%eax
  101761:	8d 44 06 18          	lea    0x18(%esi,%eax,1),%eax
  dip->type = ip->type;
  101765:	66 89 10             	mov    %dx,(%eax)
  dip->major = ip->major;
  101768:	0f b7 53 12          	movzwl 0x12(%ebx),%edx
  10176c:	66 89 50 02          	mov    %dx,0x2(%eax)
  dip->minor = ip->minor;
  101770:	0f b7 53 14          	movzwl 0x14(%ebx),%edx
  101774:	66 89 50 04          	mov    %dx,0x4(%eax)
  dip->nlink = ip->nlink;
  101778:	0f b7 53 16          	movzwl 0x16(%ebx),%edx
  10177c:	66 89 50 06          	mov    %dx,0x6(%eax)
  dip->size = ip->size;
  101780:	8b 53 18             	mov    0x18(%ebx),%edx
  memmove(dip->addrs, ip->addrs, sizeof(ip->addrs));
  101783:	83 c3 1c             	add    $0x1c,%ebx
  dip = (struct dinode*)bp->data + ip->inum%IPB;
  dip->type = ip->type;
  dip->major = ip->major;
  dip->minor = ip->minor;
  dip->nlink = ip->nlink;
  dip->size = ip->size;
  101786:	89 50 08             	mov    %edx,0x8(%eax)
  memmove(dip->addrs, ip->addrs, sizeof(ip->addrs));
  101789:	83 c0 0c             	add    $0xc,%eax
  10178c:	89 5c 24 04          	mov    %ebx,0x4(%esp)
  101790:	c7 44 24 08 34 00 00 	movl   $0x34,0x8(%esp)
  101797:	00 
  101798:	89 04 24             	mov    %eax,(%esp)
  10179b:	e8 10 29 00 00       	call   1040b0 <memmove>
  bwrite(bp);
  1017a0:	89 34 24             	mov    %esi,(%esp)
  1017a3:	e8 98 e9 ff ff       	call   100140 <bwrite>
  brelse(bp);
  1017a8:	89 75 08             	mov    %esi,0x8(%ebp)
}
  1017ab:	83 c4 10             	add    $0x10,%esp
  1017ae:	5b                   	pop    %ebx
  1017af:	5e                   	pop    %esi
  1017b0:	5d                   	pop    %ebp
  dip->minor = ip->minor;
  dip->nlink = ip->nlink;
  dip->size = ip->size;
  memmove(dip->addrs, ip->addrs, sizeof(ip->addrs));
  bwrite(bp);
  brelse(bp);
  1017b1:	e9 ba e9 ff ff       	jmp    100170 <brelse>
  1017b6:	8d 76 00             	lea    0x0(%esi),%esi
  1017b9:	8d bc 27 00 00 00 00 	lea    0x0(%edi,%eiz,1),%edi

001017c0 <iput>:
}

// Caller holds reference to unlocked ip.  Drop reference.
void
iput(struct inode *ip)
{
  1017c0:	55                   	push   %ebp
  1017c1:	89 e5                	mov    %esp,%ebp
  1017c3:	57                   	push   %edi
  1017c4:	56                   	push   %esi
  1017c5:	53                   	push   %ebx
  1017c6:	83 ec 2c             	sub    $0x2c,%esp
  1017c9:	8b 75 08             	mov    0x8(%ebp),%esi
  acquire(&icache.lock);
  1017cc:	c7 04 24 a0 9a 10 00 	movl   $0x109aa0,(%esp)
  1017d3:	e8 18 27 00 00       	call   103ef0 <acquire>
  if(ip->ref == 1 && (ip->flags & I_VALID) && ip->nlink == 0){
  1017d8:	8b 46 08             	mov    0x8(%esi),%eax
  1017db:	83 f8 01             	cmp    $0x1,%eax
  1017de:	0f 85 9e 00 00 00    	jne    101882 <iput+0xc2>
  1017e4:	8b 56 0c             	mov    0xc(%esi),%edx
  1017e7:	f6 c2 02             	test   $0x2,%dl
  1017ea:	0f 84 92 00 00 00    	je     101882 <iput+0xc2>
  1017f0:	66 83 7e 16 00       	cmpw   $0x0,0x16(%esi)
  1017f5:	0f 85 87 00 00 00    	jne    101882 <iput+0xc2>
    // inode is no longer used: truncate and free inode.
    if(ip->flags & I_BUSY)
  1017fb:	f6 c2 01             	test   $0x1,%dl
  1017fe:	0f 85 f0 00 00 00    	jne    1018f4 <iput+0x134>
      panic("iput busy");
    ip->flags |= I_BUSY;
  101804:	83 ca 01             	or     $0x1,%edx
    release(&icache.lock);
  101807:	89 f3                	mov    %esi,%ebx
  acquire(&icache.lock);
  if(ip->ref == 1 && (ip->flags & I_VALID) && ip->nlink == 0){
    // inode is no longer used: truncate and free inode.
    if(ip->flags & I_BUSY)
      panic("iput busy");
    ip->flags |= I_BUSY;
  101809:	89 56 0c             	mov    %edx,0xc(%esi)
  release(&icache.lock);
}

// Caller holds reference to unlocked ip.  Drop reference.
void
iput(struct inode *ip)
  10180c:	8d 7e 30             	lea    0x30(%esi),%edi
  if(ip->ref == 1 && (ip->flags & I_VALID) && ip->nlink == 0){
    // inode is no longer used: truncate and free inode.
    if(ip->flags & I_BUSY)
      panic("iput busy");
    ip->flags |= I_BUSY;
    release(&icache.lock);
  10180f:	c7 04 24 a0 9a 10 00 	movl   $0x109aa0,(%esp)
  101816:	e8 c5 27 00 00       	call   103fe0 <release>
  10181b:	eb 0a                	jmp    101827 <iput+0x67>
  10181d:	8d 76 00             	lea    0x0(%esi),%esi
  uint *a;

  for(i = 0; i < NDIRECT; i++){
    if(ip->addrs[i]){
      bfree(ip->dev, ip->addrs[i]);
      ip->addrs[i] = 0;
  101820:	83 c3 04             	add    $0x4,%ebx
{
  int i, j;
  struct buf *bp;
  uint *a;

  for(i = 0; i < NDIRECT; i++){
  101823:	39 fb                	cmp    %edi,%ebx
  101825:	74 1c                	je     101843 <iput+0x83>
    if(ip->addrs[i]){
  101827:	8b 53 1c             	mov    0x1c(%ebx),%edx
  10182a:	85 d2                	test   %edx,%edx
  10182c:	74 f2                	je     101820 <iput+0x60>
      bfree(ip->dev, ip->addrs[i]);
  10182e:	8b 06                	mov    (%esi),%eax
  101830:	e8 bb fb ff ff       	call   1013f0 <bfree>
      ip->addrs[i] = 0;
  101835:	c7 43 1c 00 00 00 00 	movl   $0x0,0x1c(%ebx)
  10183c:	83 c3 04             	add    $0x4,%ebx
{
  int i, j;
  struct buf *bp;
  uint *a;

  for(i = 0; i < NDIRECT; i++){
  10183f:	39 fb                	cmp    %edi,%ebx
  101841:	75 e4                	jne    101827 <iput+0x67>
      bfree(ip->dev, ip->addrs[i]);
      ip->addrs[i] = 0;
    }
  }
  
  if(ip->addrs[INDIRECT]){
  101843:	8b 46 4c             	mov    0x4c(%esi),%eax
  101846:	85 c0                	test   %eax,%eax
  101848:	75 56                	jne    1018a0 <iput+0xe0>
    }
    brelse(bp);
    ip->addrs[INDIRECT] = 0;
  }

  ip->size = 0;
  10184a:	c7 46 18 00 00 00 00 	movl   $0x0,0x18(%esi)
  iupdate(ip);
  101851:	89 34 24             	mov    %esi,(%esp)
  101854:	e8 d7 fe ff ff       	call   101730 <iupdate>
    if(ip->flags & I_BUSY)
      panic("iput busy");
    ip->flags |= I_BUSY;
    release(&icache.lock);
    itrunc(ip);
    ip->type = 0;
  101859:	66 c7 46 10 00 00    	movw   $0x0,0x10(%esi)
    iupdate(ip);
  10185f:	89 34 24             	mov    %esi,(%esp)
  101862:	e8 c9 fe ff ff       	call   101730 <iupdate>
    acquire(&icache.lock);
  101867:	c7 04 24 a0 9a 10 00 	movl   $0x109aa0,(%esp)
  10186e:	e8 7d 26 00 00       	call   103ef0 <acquire>
    ip->flags &= ~I_BUSY;
  101873:	83 66 0c fe          	andl   $0xfffffffe,0xc(%esi)
    wakeup(ip);
  101877:	89 34 24             	mov    %esi,(%esp)
  10187a:	e8 31 21 00 00       	call   1039b0 <wakeup>
  10187f:	8b 46 08             	mov    0x8(%esi),%eax
  }
  ip->ref--;
  101882:	83 e8 01             	sub    $0x1,%eax
  101885:	89 46 08             	mov    %eax,0x8(%esi)
  release(&icache.lock);
  101888:	c7 45 08 a0 9a 10 00 	movl   $0x109aa0,0x8(%ebp)
}
  10188f:	83 c4 2c             	add    $0x2c,%esp
  101892:	5b                   	pop    %ebx
  101893:	5e                   	pop    %esi
  101894:	5f                   	pop    %edi
  101895:	5d                   	pop    %ebp
    acquire(&icache.lock);
    ip->flags &= ~I_BUSY;
    wakeup(ip);
  }
  ip->ref--;
  release(&icache.lock);
  101896:	e9 45 27 00 00       	jmp    103fe0 <release>
  10189b:	90                   	nop
  10189c:	8d 74 26 00          	lea    0x0(%esi,%eiz,1),%esi
      ip->addrs[i] = 0;
    }
  }
  
  if(ip->addrs[INDIRECT]){
    bp = bread(ip->dev, ip->addrs[INDIRECT]);
  1018a0:	89 44 24 04          	mov    %eax,0x4(%esp)
  1018a4:	8b 06                	mov    (%esi),%eax
    a = (uint*)bp->data;
    for(j = 0; j < NINDIRECT; j++){
  1018a6:	31 db                	xor    %ebx,%ebx
      ip->addrs[i] = 0;
    }
  }
  
  if(ip->addrs[INDIRECT]){
    bp = bread(ip->dev, ip->addrs[INDIRECT]);
  1018a8:	89 04 24             	mov    %eax,(%esp)
  1018ab:	e8 b0 e7 ff ff       	call   100060 <bread>
    a = (uint*)bp->data;
  1018b0:	89 c7                	mov    %eax,%edi
      ip->addrs[i] = 0;
    }
  }
  
  if(ip->addrs[INDIRECT]){
    bp = bread(ip->dev, ip->addrs[INDIRECT]);
  1018b2:	89 45 e4             	mov    %eax,-0x1c(%ebp)
    a = (uint*)bp->data;
  1018b5:	83 c7 18             	add    $0x18,%edi
    for(j = 0; j < NINDIRECT; j++){
  1018b8:	31 c0                	xor    %eax,%eax
  1018ba:	eb 11                	jmp    1018cd <iput+0x10d>
  1018bc:	8d 74 26 00          	lea    0x0(%esi,%eiz,1),%esi
  1018c0:	83 c3 01             	add    $0x1,%ebx
  1018c3:	81 fb 80 00 00 00    	cmp    $0x80,%ebx
  1018c9:	89 d8                	mov    %ebx,%eax
  1018cb:	74 10                	je     1018dd <iput+0x11d>
      if(a[j])
  1018cd:	8b 14 87             	mov    (%edi,%eax,4),%edx
  1018d0:	85 d2                	test   %edx,%edx
  1018d2:	74 ec                	je     1018c0 <iput+0x100>
        bfree(ip->dev, a[j]);
  1018d4:	8b 06                	mov    (%esi),%eax
  1018d6:	e8 15 fb ff ff       	call   1013f0 <bfree>
  1018db:	eb e3                	jmp    1018c0 <iput+0x100>
    }
    brelse(bp);
  1018dd:	8b 45 e4             	mov    -0x1c(%ebp),%eax
  1018e0:	89 04 24             	mov    %eax,(%esp)
  1018e3:	e8 88 e8 ff ff       	call   100170 <brelse>
    ip->addrs[INDIRECT] = 0;
  1018e8:	c7 46 4c 00 00 00 00 	movl   $0x0,0x4c(%esi)
  1018ef:	e9 56 ff ff ff       	jmp    10184a <iput+0x8a>
{
  acquire(&icache.lock);
  if(ip->ref == 1 && (ip->flags & I_VALID) && ip->nlink == 0){
    // inode is no longer used: truncate and free inode.
    if(ip->flags & I_BUSY)
      panic("iput busy");
  1018f4:	c7 04 24 41 61 10 00 	movl   $0x106141,(%esp)
  1018fb:	e8 00 f0 ff ff       	call   100900 <panic>

00101900 <iunlockput>:
}

// Common idiom: unlock, then put.
void
iunlockput(struct inode *ip)
{
  101900:	55                   	push   %ebp
  101901:	89 e5                	mov    %esp,%ebp
  101903:	53                   	push   %ebx
  101904:	83 ec 14             	sub    $0x14,%esp
  101907:	8b 5d 08             	mov    0x8(%ebp),%ebx
  iunlock(ip);
  10190a:	89 1c 24             	mov    %ebx,(%esp)
  10190d:	e8 fe fc ff ff       	call   101610 <iunlock>
  iput(ip);
  101912:	89 5d 08             	mov    %ebx,0x8(%ebp)
}
  101915:	83 c4 14             	add    $0x14,%esp
  101918:	5b                   	pop    %ebx
  101919:	5d                   	pop    %ebp
// Common idiom: unlock, then put.
void
iunlockput(struct inode *ip)
{
  iunlock(ip);
  iput(ip);
  10191a:	e9 a1 fe ff ff       	jmp    1017c0 <iput>
  10191f:	90                   	nop

00101920 <stati>:
}

// Copy stat information from inode.
void
stati(struct inode *ip, struct stat *st)
{
  101920:	55                   	push   %ebp
  101921:	89 e5                	mov    %esp,%ebp
  101923:	8b 55 08             	mov    0x8(%ebp),%edx
  101926:	8b 45 0c             	mov    0xc(%ebp),%eax
  st->dev = ip->dev;
  101929:	8b 0a                	mov    (%edx),%ecx
  10192b:	89 08                	mov    %ecx,(%eax)
  st->ino = ip->inum;
  10192d:	8b 4a 04             	mov    0x4(%edx),%ecx
  101930:	89 48 04             	mov    %ecx,0x4(%eax)
  st->type = ip->type;
  101933:	0f b7 4a 10          	movzwl 0x10(%edx),%ecx
  101937:	66 89 48 08          	mov    %cx,0x8(%eax)
  st->nlink = ip->nlink;
  10193b:	0f b7 4a 16          	movzwl 0x16(%edx),%ecx
  st->size = ip->size;
  10193f:	8b 52 18             	mov    0x18(%edx),%edx
stati(struct inode *ip, struct stat *st)
{
  st->dev = ip->dev;
  st->ino = ip->inum;
  st->type = ip->type;
  st->nlink = ip->nlink;
  101942:	66 89 48 0a          	mov    %cx,0xa(%eax)
  st->size = ip->size;
  101946:	89 50 0c             	mov    %edx,0xc(%eax)
}
  101949:	5d                   	pop    %ebp
  10194a:	c3                   	ret    
  10194b:	90                   	nop
  10194c:	8d 74 26 00          	lea    0x0(%esi,%eiz,1),%esi

00101950 <readi>:

// Read data from inode.
int
readi(struct inode *ip, char *dst, uint off, uint n)
{
  101950:	55                   	push   %ebp
  101951:	89 e5                	mov    %esp,%ebp
  101953:	83 ec 38             	sub    $0x38,%esp
  101956:	89 5d f4             	mov    %ebx,-0xc(%ebp)
  101959:	8b 5d 08             	mov    0x8(%ebp),%ebx
  10195c:	8b 45 14             	mov    0x14(%ebp),%eax
  10195f:	89 75 f8             	mov    %esi,-0x8(%ebp)
  101962:	8b 75 10             	mov    0x10(%ebp),%esi
  101965:	89 7d fc             	mov    %edi,-0x4(%ebp)
  101968:	8b 7d 0c             	mov    0xc(%ebp),%edi
  uint tot, m;
  struct buf *bp;

  if(ip->type == T_DEV){
  10196b:	66 83 7b 10 03       	cmpw   $0x3,0x10(%ebx)
}

// Read data from inode.
int
readi(struct inode *ip, char *dst, uint off, uint n)
{
  101970:	89 45 e4             	mov    %eax,-0x1c(%ebp)
  uint tot, m;
  struct buf *bp;

  if(ip->type == T_DEV){
  101973:	74 1b                	je     101990 <readi+0x40>
    if(ip->major < 0 || ip->major >= NDEV || !devsw[ip->major].read)
      return -1;
    return devsw[ip->major].read(ip, dst, n);
  }

  if(off > ip->size || off + n < off)
  101975:	8b 53 18             	mov    0x18(%ebx),%edx
    return -1;
  101978:	b8 ff ff ff ff       	mov    $0xffffffff,%eax
    if(ip->major < 0 || ip->major >= NDEV || !devsw[ip->major].read)
      return -1;
    return devsw[ip->major].read(ip, dst, n);
  }

  if(off > ip->size || off + n < off)
  10197d:	39 f2                	cmp    %esi,%edx
  10197f:	73 47                	jae    1019c8 <readi+0x78>
    m = min(n - tot, BSIZE - off%BSIZE);
    memmove(dst, bp->data + off%BSIZE, m);
    brelse(bp);
  }
  return n;
}
  101981:	8b 5d f4             	mov    -0xc(%ebp),%ebx
  101984:	8b 75 f8             	mov    -0x8(%ebp),%esi
  101987:	8b 7d fc             	mov    -0x4(%ebp),%edi
  10198a:	89 ec                	mov    %ebp,%esp
  10198c:	5d                   	pop    %ebp
  10198d:	c3                   	ret    
  10198e:	66 90                	xchg   %ax,%ax
{
  uint tot, m;
  struct buf *bp;

  if(ip->type == T_DEV){
    if(ip->major < 0 || ip->major >= NDEV || !devsw[ip->major].read)
  101990:	0f b7 53 12          	movzwl 0x12(%ebx),%edx
      return -1;
  101994:	b8 ff ff ff ff       	mov    $0xffffffff,%eax
{
  uint tot, m;
  struct buf *bp;

  if(ip->type == T_DEV){
    if(ip->major < 0 || ip->major >= NDEV || !devsw[ip->major].read)
  101999:	66 83 fa 09          	cmp    $0x9,%dx
  10199d:	77 e2                	ja     101981 <readi+0x31>
  10199f:	0f bf d2             	movswl %dx,%edx
  1019a2:	8b 14 d5 40 9a 10 00 	mov    0x109a40(,%edx,8),%edx
  1019a9:	85 d2                	test   %edx,%edx
  1019ab:	74 d4                	je     101981 <readi+0x31>
      return -1;
    return devsw[ip->major].read(ip, dst, n);
  1019ad:	8b 45 e4             	mov    -0x1c(%ebp),%eax
    m = min(n - tot, BSIZE - off%BSIZE);
    memmove(dst, bp->data + off%BSIZE, m);
    brelse(bp);
  }
  return n;
}
  1019b0:	8b 5d f4             	mov    -0xc(%ebp),%ebx
  1019b3:	8b 75 f8             	mov    -0x8(%ebp),%esi
  1019b6:	8b 7d fc             	mov    -0x4(%ebp),%edi
  struct buf *bp;

  if(ip->type == T_DEV){
    if(ip->major < 0 || ip->major >= NDEV || !devsw[ip->major].read)
      return -1;
    return devsw[ip->major].read(ip, dst, n);
  1019b9:	89 45 10             	mov    %eax,0x10(%ebp)
    m = min(n - tot, BSIZE - off%BSIZE);
    memmove(dst, bp->data + off%BSIZE, m);
    brelse(bp);
  }
  return n;
}
  1019bc:	89 ec                	mov    %ebp,%esp
  1019be:	5d                   	pop    %ebp
  struct buf *bp;

  if(ip->type == T_DEV){
    if(ip->major < 0 || ip->major >= NDEV || !devsw[ip->major].read)
      return -1;
    return devsw[ip->major].read(ip, dst, n);
  1019bf:	ff e2                	jmp    *%edx
  1019c1:	8d b4 26 00 00 00 00 	lea    0x0(%esi,%eiz,1),%esi
  }

  if(off > ip->size || off + n < off)
  1019c8:	8b 4d e4             	mov    -0x1c(%ebp),%ecx
  1019cb:	01 f1                	add    %esi,%ecx
  1019cd:	72 b2                	jb     101981 <readi+0x31>
    return -1;
  if(off + n > ip->size)
    n = ip->size - off;
  1019cf:	89 d0                	mov    %edx,%eax
  1019d1:	29 f0                	sub    %esi,%eax
  1019d3:	39 ca                	cmp    %ecx,%edx
  1019d5:	0f 43 45 e4          	cmovae -0x1c(%ebp),%eax

  for(tot=0; tot<n; tot+=m, off+=m, dst+=m){
  1019d9:	85 c0                	test   %eax,%eax
  }

  if(off > ip->size || off + n < off)
    return -1;
  if(off + n > ip->size)
    n = ip->size - off;
  1019db:	89 45 e4             	mov    %eax,-0x1c(%ebp)

  for(tot=0; tot<n; tot+=m, off+=m, dst+=m){
  1019de:	74 7c                	je     101a5c <readi+0x10c>
  1019e0:	c7 45 e0 00 00 00 00 	movl   $0x0,-0x20(%ebp)
    bp = bread(ip->dev, bmap(ip, off/BSIZE, 0));
    m = min(n - tot, BSIZE - off%BSIZE);
  1019e7:	89 7d dc             	mov    %edi,-0x24(%ebp)
  1019ea:	8d b6 00 00 00 00    	lea    0x0(%esi),%esi
    return -1;
  if(off + n > ip->size)
    n = ip->size - off;

  for(tot=0; tot<n; tot+=m, off+=m, dst+=m){
    bp = bread(ip->dev, bmap(ip, off/BSIZE, 0));
  1019f0:	89 f2                	mov    %esi,%edx
  1019f2:	31 c9                	xor    %ecx,%ecx
  1019f4:	c1 ea 09             	shr    $0x9,%edx
  1019f7:	89 d8                	mov    %ebx,%eax
  1019f9:	e8 f2 f8 ff ff       	call   1012f0 <bmap>
    m = min(n - tot, BSIZE - off%BSIZE);
  1019fe:	bf 00 02 00 00       	mov    $0x200,%edi
    return -1;
  if(off + n > ip->size)
    n = ip->size - off;

  for(tot=0; tot<n; tot+=m, off+=m, dst+=m){
    bp = bread(ip->dev, bmap(ip, off/BSIZE, 0));
  101a03:	89 44 24 04          	mov    %eax,0x4(%esp)
  101a07:	8b 03                	mov    (%ebx),%eax
  101a09:	89 04 24             	mov    %eax,(%esp)
  101a0c:	e8 4f e6 ff ff       	call   100060 <bread>
    m = min(n - tot, BSIZE - off%BSIZE);
  101a11:	8b 4d e4             	mov    -0x1c(%ebp),%ecx
  101a14:	2b 4d e0             	sub    -0x20(%ebp),%ecx
    return -1;
  if(off + n > ip->size)
    n = ip->size - off;

  for(tot=0; tot<n; tot+=m, off+=m, dst+=m){
    bp = bread(ip->dev, bmap(ip, off/BSIZE, 0));
  101a17:	89 c2                	mov    %eax,%edx
    m = min(n - tot, BSIZE - off%BSIZE);
  101a19:	89 f0                	mov    %esi,%eax
  101a1b:	25 ff 01 00 00       	and    $0x1ff,%eax
  101a20:	29 c7                	sub    %eax,%edi
    memmove(dst, bp->data + off%BSIZE, m);
  101a22:	8d 44 02 18          	lea    0x18(%edx,%eax,1),%eax
  if(off + n > ip->size)
    n = ip->size - off;

  for(tot=0; tot<n; tot+=m, off+=m, dst+=m){
    bp = bread(ip->dev, bmap(ip, off/BSIZE, 0));
    m = min(n - tot, BSIZE - off%BSIZE);
  101a26:	39 cf                	cmp    %ecx,%edi
    memmove(dst, bp->data + off%BSIZE, m);
  101a28:	89 44 24 04          	mov    %eax,0x4(%esp)
  101a2c:	8b 45 dc             	mov    -0x24(%ebp),%eax
  if(off + n > ip->size)
    n = ip->size - off;

  for(tot=0; tot<n; tot+=m, off+=m, dst+=m){
    bp = bread(ip->dev, bmap(ip, off/BSIZE, 0));
    m = min(n - tot, BSIZE - off%BSIZE);
  101a2f:	0f 47 f9             	cmova  %ecx,%edi
    memmove(dst, bp->data + off%BSIZE, m);
  101a32:	89 55 d8             	mov    %edx,-0x28(%ebp)
  if(off > ip->size || off + n < off)
    return -1;
  if(off + n > ip->size)
    n = ip->size - off;

  for(tot=0; tot<n; tot+=m, off+=m, dst+=m){
  101a35:	01 fe                	add    %edi,%esi
    bp = bread(ip->dev, bmap(ip, off/BSIZE, 0));
    m = min(n - tot, BSIZE - off%BSIZE);
    memmove(dst, bp->data + off%BSIZE, m);
  101a37:	89 7c 24 08          	mov    %edi,0x8(%esp)
  101a3b:	89 04 24             	mov    %eax,(%esp)
  101a3e:	e8 6d 26 00 00       	call   1040b0 <memmove>
    brelse(bp);
  101a43:	8b 55 d8             	mov    -0x28(%ebp),%edx
  101a46:	89 14 24             	mov    %edx,(%esp)
  101a49:	e8 22 e7 ff ff       	call   100170 <brelse>
  if(off > ip->size || off + n < off)
    return -1;
  if(off + n > ip->size)
    n = ip->size - off;

  for(tot=0; tot<n; tot+=m, off+=m, dst+=m){
  101a4e:	01 7d e0             	add    %edi,-0x20(%ebp)
  101a51:	8b 45 e0             	mov    -0x20(%ebp),%eax
  101a54:	01 7d dc             	add    %edi,-0x24(%ebp)
  101a57:	39 45 e4             	cmp    %eax,-0x1c(%ebp)
  101a5a:	77 94                	ja     1019f0 <readi+0xa0>
    bp = bread(ip->dev, bmap(ip, off/BSIZE, 0));
    m = min(n - tot, BSIZE - off%BSIZE);
    memmove(dst, bp->data + off%BSIZE, m);
    brelse(bp);
  }
  return n;
  101a5c:	8b 45 e4             	mov    -0x1c(%ebp),%eax
  101a5f:	e9 1d ff ff ff       	jmp    101981 <readi+0x31>
  101a64:	8d b6 00 00 00 00    	lea    0x0(%esi),%esi
  101a6a:	8d bf 00 00 00 00    	lea    0x0(%edi),%edi

00101a70 <writei>:
}

// Write data to inode.
int
writei(struct inode *ip, char *src, uint off, uint n)
{
  101a70:	55                   	push   %ebp
  101a71:	89 e5                	mov    %esp,%ebp
  101a73:	57                   	push   %edi
  101a74:	56                   	push   %esi
  101a75:	53                   	push   %ebx
  101a76:	83 ec 2c             	sub    $0x2c,%esp
  101a79:	8b 75 08             	mov    0x8(%ebp),%esi
  101a7c:	8b 45 0c             	mov    0xc(%ebp),%eax
  101a7f:	8b 4d 14             	mov    0x14(%ebp),%ecx
  101a82:	8b 5d 10             	mov    0x10(%ebp),%ebx
  uint tot, m;
  struct buf *bp;

  if(ip->type == T_DEV){
  101a85:	66 83 7e 10 03       	cmpw   $0x3,0x10(%esi)
}

// Write data to inode.
int
writei(struct inode *ip, char *src, uint off, uint n)
{
  101a8a:	89 45 e0             	mov    %eax,-0x20(%ebp)
  101a8d:	89 4d dc             	mov    %ecx,-0x24(%ebp)
  uint tot, m;
  struct buf *bp;

  if(ip->type == T_DEV){
  101a90:	0f 84 ca 00 00 00    	je     101b60 <writei+0xf0>
    if(ip->major < 0 || ip->major >= NDEV || !devsw[ip->major].write)
      return -1;
    return devsw[ip->major].write(ip, src, n);
  }

  if(off + n < off)
  101a96:	8b 55 dc             	mov    -0x24(%ebp),%edx
    return -1;
  101a99:	b8 ff ff ff ff       	mov    $0xffffffff,%eax
    if(ip->major < 0 || ip->major >= NDEV || !devsw[ip->major].write)
      return -1;
    return devsw[ip->major].write(ip, src, n);
  }

  if(off + n < off)
  101a9e:	01 da                	add    %ebx,%edx
  101aa0:	0f 82 ac 00 00 00    	jb     101b52 <writei+0xe2>
    return -1;
  if(off + n > MAXFILE*BSIZE)
  101aa6:	81 fa 00 18 01 00    	cmp    $0x11800,%edx
  101aac:	76 0a                	jbe    101ab8 <writei+0x48>
    n = MAXFILE*BSIZE - off;
  101aae:	c7 45 dc 00 18 01 00 	movl   $0x11800,-0x24(%ebp)
  101ab5:	29 5d dc             	sub    %ebx,-0x24(%ebp)

  for(tot=0; tot<n; tot+=m, off+=m, src+=m){
  101ab8:	8b 7d dc             	mov    -0x24(%ebp),%edi
  101abb:	85 ff                	test   %edi,%edi
  101abd:	0f 84 8c 00 00 00    	je     101b4f <writei+0xdf>
  101ac3:	c7 45 e4 00 00 00 00 	movl   $0x0,-0x1c(%ebp)
  101aca:	8d b6 00 00 00 00    	lea    0x0(%esi),%esi
    bp = bread(ip->dev, bmap(ip, off/BSIZE, 1));
  101ad0:	89 da                	mov    %ebx,%edx
  101ad2:	b9 01 00 00 00       	mov    $0x1,%ecx
  101ad7:	c1 ea 09             	shr    $0x9,%edx
  101ada:	89 f0                	mov    %esi,%eax
  101adc:	e8 0f f8 ff ff       	call   1012f0 <bmap>
    m = min(n - tot, BSIZE - off%BSIZE);
  101ae1:	bf 00 02 00 00       	mov    $0x200,%edi
    return -1;
  if(off + n > MAXFILE*BSIZE)
    n = MAXFILE*BSIZE - off;

  for(tot=0; tot<n; tot+=m, off+=m, src+=m){
    bp = bread(ip->dev, bmap(ip, off/BSIZE, 1));
  101ae6:	89 44 24 04          	mov    %eax,0x4(%esp)
  101aea:	8b 06                	mov    (%esi),%eax
  101aec:	89 04 24             	mov    %eax,(%esp)
  101aef:	e8 6c e5 ff ff       	call   100060 <bread>
    m = min(n - tot, BSIZE - off%BSIZE);
  101af4:	8b 4d dc             	mov    -0x24(%ebp),%ecx
  101af7:	2b 4d e4             	sub    -0x1c(%ebp),%ecx
    return -1;
  if(off + n > MAXFILE*BSIZE)
    n = MAXFILE*BSIZE - off;

  for(tot=0; tot<n; tot+=m, off+=m, src+=m){
    bp = bread(ip->dev, bmap(ip, off/BSIZE, 1));
  101afa:	89 c2                	mov    %eax,%edx
    m = min(n - tot, BSIZE - off%BSIZE);
  101afc:	89 d8                	mov    %ebx,%eax
  101afe:	25 ff 01 00 00       	and    $0x1ff,%eax
  101b03:	29 c7                	sub    %eax,%edi
  101b05:	39 cf                	cmp    %ecx,%edi
  101b07:	0f 47 f9             	cmova  %ecx,%edi
    memmove(bp->data + off%BSIZE, src, m);
  101b0a:	8b 4d e0             	mov    -0x20(%ebp),%ecx
  101b0d:	8d 44 02 18          	lea    0x18(%edx,%eax,1),%eax
  if(off + n < off)
    return -1;
  if(off + n > MAXFILE*BSIZE)
    n = MAXFILE*BSIZE - off;

  for(tot=0; tot<n; tot+=m, off+=m, src+=m){
  101b11:	01 fb                	add    %edi,%ebx
    bp = bread(ip->dev, bmap(ip, off/BSIZE, 1));
    m = min(n - tot, BSIZE - off%BSIZE);
    memmove(bp->data + off%BSIZE, src, m);
  101b13:	89 55 d8             	mov    %edx,-0x28(%ebp)
  101b16:	89 7c 24 08          	mov    %edi,0x8(%esp)
  101b1a:	89 4c 24 04          	mov    %ecx,0x4(%esp)
  101b1e:	89 04 24             	mov    %eax,(%esp)
  101b21:	e8 8a 25 00 00       	call   1040b0 <memmove>
    bwrite(bp);
  101b26:	8b 55 d8             	mov    -0x28(%ebp),%edx
  101b29:	89 14 24             	mov    %edx,(%esp)
  101b2c:	e8 0f e6 ff ff       	call   100140 <bwrite>
    brelse(bp);
  101b31:	8b 55 d8             	mov    -0x28(%ebp),%edx
  101b34:	89 14 24             	mov    %edx,(%esp)
  101b37:	e8 34 e6 ff ff       	call   100170 <brelse>
  if(off + n < off)
    return -1;
  if(off + n > MAXFILE*BSIZE)
    n = MAXFILE*BSIZE - off;

  for(tot=0; tot<n; tot+=m, off+=m, src+=m){
  101b3c:	01 7d e4             	add    %edi,-0x1c(%ebp)
  101b3f:	8b 45 e4             	mov    -0x1c(%ebp),%eax
  101b42:	01 7d e0             	add    %edi,-0x20(%ebp)
  101b45:	39 45 dc             	cmp    %eax,-0x24(%ebp)
  101b48:	77 86                	ja     101ad0 <writei+0x60>
    memmove(bp->data + off%BSIZE, src, m);
    bwrite(bp);
    brelse(bp);
  }

  if(n > 0 && off > ip->size){
  101b4a:	39 5e 18             	cmp    %ebx,0x18(%esi)
  101b4d:	72 41                	jb     101b90 <writei+0x120>
    ip->size = off;
    iupdate(ip);
  }
  return n;
  101b4f:	8b 45 dc             	mov    -0x24(%ebp),%eax
}
  101b52:	83 c4 2c             	add    $0x2c,%esp
  101b55:	5b                   	pop    %ebx
  101b56:	5e                   	pop    %esi
  101b57:	5f                   	pop    %edi
  101b58:	5d                   	pop    %ebp
  101b59:	c3                   	ret    
  101b5a:	8d b6 00 00 00 00    	lea    0x0(%esi),%esi
{
  uint tot, m;
  struct buf *bp;

  if(ip->type == T_DEV){
    if(ip->major < 0 || ip->major >= NDEV || !devsw[ip->major].write)
  101b60:	0f b7 56 12          	movzwl 0x12(%esi),%edx
      return -1;
  101b64:	b8 ff ff ff ff       	mov    $0xffffffff,%eax
{
  uint tot, m;
  struct buf *bp;

  if(ip->type == T_DEV){
    if(ip->major < 0 || ip->major >= NDEV || !devsw[ip->major].write)
  101b69:	66 83 fa 09          	cmp    $0x9,%dx
  101b6d:	77 e3                	ja     101b52 <writei+0xe2>
  101b6f:	0f bf d2             	movswl %dx,%edx
  101b72:	8b 14 d5 44 9a 10 00 	mov    0x109a44(,%edx,8),%edx
  101b79:	85 d2                	test   %edx,%edx
  101b7b:	74 d5                	je     101b52 <writei+0xe2>
      return -1;
    return devsw[ip->major].write(ip, src, n);
  101b7d:	89 4d 10             	mov    %ecx,0x10(%ebp)
  if(n > 0 && off > ip->size){
    ip->size = off;
    iupdate(ip);
  }
  return n;
}
  101b80:	83 c4 2c             	add    $0x2c,%esp
  101b83:	5b                   	pop    %ebx
  101b84:	5e                   	pop    %esi
  101b85:	5f                   	pop    %edi
  101b86:	5d                   	pop    %ebp
  struct buf *bp;

  if(ip->type == T_DEV){
    if(ip->major < 0 || ip->major >= NDEV || !devsw[ip->major].write)
      return -1;
    return devsw[ip->major].write(ip, src, n);
  101b87:	ff e2                	jmp    *%edx
  101b89:	8d b4 26 00 00 00 00 	lea    0x0(%esi,%eiz,1),%esi
    bwrite(bp);
    brelse(bp);
  }

  if(n > 0 && off > ip->size){
    ip->size = off;
  101b90:	89 5e 18             	mov    %ebx,0x18(%esi)
    iupdate(ip);
  101b93:	89 34 24             	mov    %esi,(%esp)
  101b96:	e8 95 fb ff ff       	call   101730 <iupdate>
  101b9b:	eb b2                	jmp    101b4f <writei+0xdf>
  101b9d:	8d 76 00             	lea    0x0(%esi),%esi

00101ba0 <namecmp>:

// Directories

int
namecmp(const char *s, const char *t)
{
  101ba0:	55                   	push   %ebp
  101ba1:	89 e5                	mov    %esp,%ebp
  101ba3:	83 ec 18             	sub    $0x18,%esp
  return strncmp(s, t, DIRSIZ);
  101ba6:	8b 45 0c             	mov    0xc(%ebp),%eax
  101ba9:	c7 44 24 08 0e 00 00 	movl   $0xe,0x8(%esp)
  101bb0:	00 
  101bb1:	89 44 24 04          	mov    %eax,0x4(%esp)
  101bb5:	8b 45 08             	mov    0x8(%ebp),%eax
  101bb8:	89 04 24             	mov    %eax,(%esp)
  101bbb:	e8 50 25 00 00       	call   104110 <strncmp>
}
  101bc0:	c9                   	leave  
  101bc1:	c3                   	ret    
  101bc2:	8d b4 26 00 00 00 00 	lea    0x0(%esi,%eiz,1),%esi
  101bc9:	8d bc 27 00 00 00 00 	lea    0x0(%edi,%eiz,1),%edi

00101bd0 <dirlookup>:
// Look for a directory entry in a directory.
// If found, set *poff to byte offset of entry.
// Caller must have already locked dp.
struct inode*
dirlookup(struct inode *dp, char *name, uint *poff)
{
  101bd0:	55                   	push   %ebp
  101bd1:	89 e5                	mov    %esp,%ebp
  101bd3:	57                   	push   %edi
  101bd4:	56                   	push   %esi
  101bd5:	53                   	push   %ebx
  101bd6:	83 ec 3c             	sub    $0x3c,%esp
  101bd9:	8b 45 08             	mov    0x8(%ebp),%eax
  101bdc:	8b 55 10             	mov    0x10(%ebp),%edx
  101bdf:	8b 5d 0c             	mov    0xc(%ebp),%ebx
  uint off, inum;
  struct buf *bp;
  struct dirent *de;

  if(dp->type != T_DIR)
  101be2:	66 83 78 10 01       	cmpw   $0x1,0x10(%eax)
// Look for a directory entry in a directory.
// If found, set *poff to byte offset of entry.
// Caller must have already locked dp.
struct inode*
dirlookup(struct inode *dp, char *name, uint *poff)
{
  101be7:	89 45 dc             	mov    %eax,-0x24(%ebp)
  101bea:	89 55 d4             	mov    %edx,-0x2c(%ebp)
  uint off, inum;
  struct buf *bp;
  struct dirent *de;

  if(dp->type != T_DIR)
  101bed:	0f 85 d0 00 00 00    	jne    101cc3 <dirlookup+0xf3>
    panic("dirlookup not DIR");

  for(off = 0; off < dp->size; off += BSIZE){
  101bf3:	8b 50 18             	mov    0x18(%eax),%edx
  101bf6:	c7 45 e0 00 00 00 00 	movl   $0x0,-0x20(%ebp)
  101bfd:	85 d2                	test   %edx,%edx
  101bff:	0f 84 b4 00 00 00    	je     101cb9 <dirlookup+0xe9>
    bp = bread(dp->dev, bmap(dp, off / BSIZE, 0));
  101c05:	8b 55 e0             	mov    -0x20(%ebp),%edx
  101c08:	31 c9                	xor    %ecx,%ecx
  101c0a:	8b 45 dc             	mov    -0x24(%ebp),%eax
  101c0d:	c1 ea 09             	shr    $0x9,%edx
  101c10:	e8 db f6 ff ff       	call   1012f0 <bmap>
  101c15:	8b 4d dc             	mov    -0x24(%ebp),%ecx
  101c18:	89 44 24 04          	mov    %eax,0x4(%esp)
  101c1c:	8b 01                	mov    (%ecx),%eax
  101c1e:	89 04 24             	mov    %eax,(%esp)
  101c21:	e8 3a e4 ff ff       	call   100060 <bread>
  101c26:	89 45 e4             	mov    %eax,-0x1c(%ebp)

// Look for a directory entry in a directory.
// If found, set *poff to byte offset of entry.
// Caller must have already locked dp.
struct inode*
dirlookup(struct inode *dp, char *name, uint *poff)
  101c29:	8b 7d e4             	mov    -0x1c(%ebp),%edi
  if(dp->type != T_DIR)
    panic("dirlookup not DIR");

  for(off = 0; off < dp->size; off += BSIZE){
    bp = bread(dp->dev, bmap(dp, off / BSIZE, 0));
    for(de = (struct dirent*)bp->data;
  101c2c:	83 c0 18             	add    $0x18,%eax
  101c2f:	89 45 d8             	mov    %eax,-0x28(%ebp)
  101c32:	89 c6                	mov    %eax,%esi

// Look for a directory entry in a directory.
// If found, set *poff to byte offset of entry.
// Caller must have already locked dp.
struct inode*
dirlookup(struct inode *dp, char *name, uint *poff)
  101c34:	81 c7 18 02 00 00    	add    $0x218,%edi
  101c3a:	eb 0b                	jmp    101c47 <dirlookup+0x77>
  101c3c:	8d 74 26 00          	lea    0x0(%esi,%eiz,1),%esi

  for(off = 0; off < dp->size; off += BSIZE){
    bp = bread(dp->dev, bmap(dp, off / BSIZE, 0));
    for(de = (struct dirent*)bp->data;
        de < (struct dirent*)(bp->data + BSIZE);
        de++){
  101c40:	83 c6 10             	add    $0x10,%esi
  if(dp->type != T_DIR)
    panic("dirlookup not DIR");

  for(off = 0; off < dp->size; off += BSIZE){
    bp = bread(dp->dev, bmap(dp, off / BSIZE, 0));
    for(de = (struct dirent*)bp->data;
  101c43:	39 fe                	cmp    %edi,%esi
  101c45:	74 51                	je     101c98 <dirlookup+0xc8>
        de < (struct dirent*)(bp->data + BSIZE);
        de++){
      if(de->inum == 0)
  101c47:	66 83 3e 00          	cmpw   $0x0,(%esi)
  101c4b:	74 f3                	je     101c40 <dirlookup+0x70>
        continue;
      if(namecmp(name, de->name) == 0){
  101c4d:	8d 46 02             	lea    0x2(%esi),%eax
  101c50:	89 44 24 04          	mov    %eax,0x4(%esp)
  101c54:	89 1c 24             	mov    %ebx,(%esp)
  101c57:	e8 44 ff ff ff       	call   101ba0 <namecmp>
  101c5c:	85 c0                	test   %eax,%eax
  101c5e:	75 e0                	jne    101c40 <dirlookup+0x70>
        // entry matches path element
        if(poff)
  101c60:	8b 45 d4             	mov    -0x2c(%ebp),%eax
  101c63:	85 c0                	test   %eax,%eax
  101c65:	74 0e                	je     101c75 <dirlookup+0xa5>
          *poff = off + (uchar*)de - bp->data;
  101c67:	8b 45 e0             	mov    -0x20(%ebp),%eax
  101c6a:	8b 55 d4             	mov    -0x2c(%ebp),%edx
  101c6d:	8d 04 06             	lea    (%esi,%eax,1),%eax
  101c70:	2b 45 d8             	sub    -0x28(%ebp),%eax
  101c73:	89 02                	mov    %eax,(%edx)
        inum = de->inum;
        brelse(bp);
  101c75:	8b 4d e4             	mov    -0x1c(%ebp),%ecx
        continue;
      if(namecmp(name, de->name) == 0){
        // entry matches path element
        if(poff)
          *poff = off + (uchar*)de - bp->data;
        inum = de->inum;
  101c78:	0f b7 1e             	movzwl (%esi),%ebx
        brelse(bp);
  101c7b:	89 0c 24             	mov    %ecx,(%esp)
  101c7e:	e8 ed e4 ff ff       	call   100170 <brelse>
        return iget(dp->dev, inum);
  101c83:	8b 4d dc             	mov    -0x24(%ebp),%ecx
  101c86:	89 da                	mov    %ebx,%edx
  101c88:	8b 01                	mov    (%ecx),%eax
      }
    }
    brelse(bp);
  }
  return 0;
}
  101c8a:	83 c4 3c             	add    $0x3c,%esp
  101c8d:	5b                   	pop    %ebx
  101c8e:	5e                   	pop    %esi
  101c8f:	5f                   	pop    %edi
  101c90:	5d                   	pop    %ebp
        // entry matches path element
        if(poff)
          *poff = off + (uchar*)de - bp->data;
        inum = de->inum;
        brelse(bp);
        return iget(dp->dev, inum);
  101c91:	e9 7a f4 ff ff       	jmp    101110 <iget>
  101c96:	66 90                	xchg   %ax,%ax
      }
    }
    brelse(bp);
  101c98:	8b 45 e4             	mov    -0x1c(%ebp),%eax
  101c9b:	89 04 24             	mov    %eax,(%esp)
  101c9e:	e8 cd e4 ff ff       	call   100170 <brelse>
  struct dirent *de;

  if(dp->type != T_DIR)
    panic("dirlookup not DIR");

  for(off = 0; off < dp->size; off += BSIZE){
  101ca3:	8b 55 dc             	mov    -0x24(%ebp),%edx
  101ca6:	81 45 e0 00 02 00 00 	addl   $0x200,-0x20(%ebp)
  101cad:	8b 4d e0             	mov    -0x20(%ebp),%ecx
  101cb0:	39 4a 18             	cmp    %ecx,0x18(%edx)
  101cb3:	0f 87 4c ff ff ff    	ja     101c05 <dirlookup+0x35>
      }
    }
    brelse(bp);
  }
  return 0;
}
  101cb9:	83 c4 3c             	add    $0x3c,%esp
  101cbc:	31 c0                	xor    %eax,%eax
  101cbe:	5b                   	pop    %ebx
  101cbf:	5e                   	pop    %esi
  101cc0:	5f                   	pop    %edi
  101cc1:	5d                   	pop    %ebp
  101cc2:	c3                   	ret    
  uint off, inum;
  struct buf *bp;
  struct dirent *de;

  if(dp->type != T_DIR)
    panic("dirlookup not DIR");
  101cc3:	c7 04 24 4b 61 10 00 	movl   $0x10614b,(%esp)
  101cca:	e8 31 ec ff ff       	call   100900 <panic>
  101ccf:	90                   	nop

00101cd0 <_namei>:
// Look up and return the inode for a path name.
// If parent != 0, return the inode for the parent and copy the final
// path element into name, which must have room for DIRSIZ bytes.
static struct inode*
_namei(char *path, int parent, char *name)
{
  101cd0:	55                   	push   %ebp
  101cd1:	89 e5                	mov    %esp,%ebp
  101cd3:	57                   	push   %edi
  101cd4:	56                   	push   %esi
  101cd5:	53                   	push   %ebx
  101cd6:	89 c3                	mov    %eax,%ebx
  101cd8:	83 ec 2c             	sub    $0x2c,%esp
  101cdb:	89 55 e0             	mov    %edx,-0x20(%ebp)
  101cde:	89 4d e4             	mov    %ecx,-0x1c(%ebp)
  struct inode *ip, *next;

  if(*path == '/')
  101ce1:	80 38 2f             	cmpb   $0x2f,(%eax)
  101ce4:	0f 84 29 01 00 00    	je     101e13 <_namei+0x143>
    ip = iget(ROOTDEV, 1);
  else
    ip = idup(cp->cwd);
  101cea:	e8 21 19 00 00       	call   103610 <curproc>
  101cef:	8b 40 60             	mov    0x60(%eax),%eax
  101cf2:	89 04 24             	mov    %eax,(%esp)
  101cf5:	e8 d6 f7 ff ff       	call   1014d0 <idup>
  101cfa:	89 c7                	mov    %eax,%edi
  101cfc:	eb 05                	jmp    101d03 <_namei+0x33>
  101cfe:	66 90                	xchg   %ax,%ax
{
  char *s;
  int len;

  while(*path == '/')
    path++;
  101d00:	83 c3 01             	add    $0x1,%ebx
skipelem(char *path, char *name)
{
  char *s;
  int len;

  while(*path == '/')
  101d03:	0f b6 03             	movzbl (%ebx),%eax
  101d06:	3c 2f                	cmp    $0x2f,%al
  101d08:	74 f6                	je     101d00 <_namei+0x30>
    path++;
  if(*path == 0)
  101d0a:	84 c0                	test   %al,%al
  101d0c:	75 1a                	jne    101d28 <_namei+0x58>
      return 0;
    }
    iunlockput(ip);
    ip = next;
  }
  if(parent){
  101d0e:	8b 4d e0             	mov    -0x20(%ebp),%ecx
  101d11:	85 c9                	test   %ecx,%ecx
  101d13:	0f 85 22 01 00 00    	jne    101e3b <_namei+0x16b>
    iput(ip);
    return 0;
  }
  return ip;
}
  101d19:	83 c4 2c             	add    $0x2c,%esp
  101d1c:	89 f8                	mov    %edi,%eax
  101d1e:	5b                   	pop    %ebx
  101d1f:	5e                   	pop    %esi
  101d20:	5f                   	pop    %edi
  101d21:	5d                   	pop    %ebp
  101d22:	c3                   	ret    
  101d23:	90                   	nop
  101d24:	8d 74 26 00          	lea    0x0(%esi,%eiz,1),%esi
  while(*path == '/')
    path++;
  if(*path == 0)
    return 0;
  s = path;
  while(*path != '/' && *path != 0)
  101d28:	3c 2f                	cmp    $0x2f,%al
  101d2a:	0f 84 9f 00 00 00    	je     101dcf <_namei+0xff>
  101d30:	89 de                	mov    %ebx,%esi
  101d32:	eb 08                	jmp    101d3c <_namei+0x6c>
  101d34:	8d 74 26 00          	lea    0x0(%esi,%eiz,1),%esi
  101d38:	3c 2f                	cmp    $0x2f,%al
  101d3a:	74 0a                	je     101d46 <_namei+0x76>
    path++;
  101d3c:	83 c6 01             	add    $0x1,%esi
  while(*path == '/')
    path++;
  if(*path == 0)
    return 0;
  s = path;
  while(*path != '/' && *path != 0)
  101d3f:	0f b6 06             	movzbl (%esi),%eax
  101d42:	84 c0                	test   %al,%al
  101d44:	75 f2                	jne    101d38 <_namei+0x68>
  101d46:	89 f2                	mov    %esi,%edx
  101d48:	29 da                	sub    %ebx,%edx
    path++;
  len = path - s;
  if(len >= DIRSIZ)
  101d4a:	83 fa 0d             	cmp    $0xd,%edx
  101d4d:	0f 8e 85 00 00 00    	jle    101dd8 <_namei+0x108>
    memmove(name, s, DIRSIZ);
  101d53:	8b 45 e4             	mov    -0x1c(%ebp),%eax
  101d56:	89 5c 24 04          	mov    %ebx,0x4(%esp)
    path++;
  if(*path == 0)
    return 0;
  s = path;
  while(*path != '/' && *path != 0)
    path++;
  101d5a:	89 f3                	mov    %esi,%ebx
  len = path - s;
  if(len >= DIRSIZ)
    memmove(name, s, DIRSIZ);
  101d5c:	c7 44 24 08 0e 00 00 	movl   $0xe,0x8(%esp)
  101d63:	00 
  101d64:	89 04 24             	mov    %eax,(%esp)
  101d67:	e8 44 23 00 00       	call   1040b0 <memmove>
  else {
    memmove(name, s, len);
    name[len] = 0;
  }
  while(*path == '/')
  101d6c:	80 3e 2f             	cmpb   $0x2f,(%esi)
  101d6f:	75 0f                	jne    101d80 <_namei+0xb0>
  101d71:	8d b4 26 00 00 00 00 	lea    0x0(%esi,%eiz,1),%esi
    path++;
  101d78:	83 c3 01             	add    $0x1,%ebx
    memmove(name, s, DIRSIZ);
  else {
    memmove(name, s, len);
    name[len] = 0;
  }
  while(*path == '/')
  101d7b:	80 3b 2f             	cmpb   $0x2f,(%ebx)
  101d7e:	74 f8                	je     101d78 <_namei+0xa8>
  if(*path == '/')
    ip = iget(ROOTDEV, 1);
  else
    ip = idup(cp->cwd);

  while((path = skipelem(path, name)) != 0){
  101d80:	85 db                	test   %ebx,%ebx
  101d82:	74 8a                	je     101d0e <_namei+0x3e>
    ilock(ip);
  101d84:	89 3c 24             	mov    %edi,(%esp)
  101d87:	e8 74 f7 ff ff       	call   101500 <ilock>
    if(ip->type != T_DIR){
  101d8c:	66 83 7f 10 01       	cmpw   $0x1,0x10(%edi)
  101d91:	75 6c                	jne    101dff <_namei+0x12f>
      iunlockput(ip);
      return 0;
    }
    if(parent && *path == '\0'){
  101d93:	8b 75 e0             	mov    -0x20(%ebp),%esi
  101d96:	85 f6                	test   %esi,%esi
  101d98:	74 09                	je     101da3 <_namei+0xd3>
  101d9a:	80 3b 00             	cmpb   $0x0,(%ebx)
  101d9d:	0f 84 86 00 00 00    	je     101e29 <_namei+0x159>
      // Stop one level early.
      iunlock(ip);
      return ip;
    }
    if((next = dirlookup(ip, name, 0)) == 0){
  101da3:	8b 45 e4             	mov    -0x1c(%ebp),%eax
  101da6:	c7 44 24 08 00 00 00 	movl   $0x0,0x8(%esp)
  101dad:	00 
  101dae:	89 3c 24             	mov    %edi,(%esp)
  101db1:	89 44 24 04          	mov    %eax,0x4(%esp)
  101db5:	e8 16 fe ff ff       	call   101bd0 <dirlookup>
  101dba:	85 c0                	test   %eax,%eax
  101dbc:	89 c6                	mov    %eax,%esi
  101dbe:	74 3f                	je     101dff <_namei+0x12f>
      iunlockput(ip);
      return 0;
    }
    iunlockput(ip);
  101dc0:	89 3c 24             	mov    %edi,(%esp)
    ip = next;
  101dc3:	89 f7                	mov    %esi,%edi
    }
    if((next = dirlookup(ip, name, 0)) == 0){
      iunlockput(ip);
      return 0;
    }
    iunlockput(ip);
  101dc5:	e8 36 fb ff ff       	call   101900 <iunlockput>
  101dca:	e9 34 ff ff ff       	jmp    101d03 <_namei+0x33>
  while(*path == '/')
    path++;
  if(*path == 0)
    return 0;
  s = path;
  while(*path != '/' && *path != 0)
  101dcf:	89 de                	mov    %ebx,%esi
  101dd1:	31 d2                	xor    %edx,%edx
  101dd3:	90                   	nop
  101dd4:	8d 74 26 00          	lea    0x0(%esi,%eiz,1),%esi
    path++;
  len = path - s;
  if(len >= DIRSIZ)
    memmove(name, s, DIRSIZ);
  else {
    memmove(name, s, len);
  101dd8:	8b 45 e4             	mov    -0x1c(%ebp),%eax
  101ddb:	89 54 24 08          	mov    %edx,0x8(%esp)
  101ddf:	89 5c 24 04          	mov    %ebx,0x4(%esp)
    name[len] = 0;
  101de3:	89 f3                	mov    %esi,%ebx
    path++;
  len = path - s;
  if(len >= DIRSIZ)
    memmove(name, s, DIRSIZ);
  else {
    memmove(name, s, len);
  101de5:	89 55 dc             	mov    %edx,-0x24(%ebp)
  101de8:	89 04 24             	mov    %eax,(%esp)
  101deb:	e8 c0 22 00 00       	call   1040b0 <memmove>
    name[len] = 0;
  101df0:	8b 55 dc             	mov    -0x24(%ebp),%edx
  101df3:	8b 45 e4             	mov    -0x1c(%ebp),%eax
  101df6:	c6 04 10 00          	movb   $0x0,(%eax,%edx,1)
  101dfa:	e9 6d ff ff ff       	jmp    101d6c <_namei+0x9c>
      // Stop one level early.
      iunlock(ip);
      return ip;
    }
    if((next = dirlookup(ip, name, 0)) == 0){
      iunlockput(ip);
  101dff:	89 3c 24             	mov    %edi,(%esp)
      return 0;
  101e02:	31 ff                	xor    %edi,%edi
      // Stop one level early.
      iunlock(ip);
      return ip;
    }
    if((next = dirlookup(ip, name, 0)) == 0){
      iunlockput(ip);
  101e04:	e8 f7 fa ff ff       	call   101900 <iunlockput>
  if(parent){
    iput(ip);
    return 0;
  }
  return ip;
}
  101e09:	83 c4 2c             	add    $0x2c,%esp
  101e0c:	89 f8                	mov    %edi,%eax
  101e0e:	5b                   	pop    %ebx
  101e0f:	5e                   	pop    %esi
  101e10:	5f                   	pop    %edi
  101e11:	5d                   	pop    %ebp
  101e12:	c3                   	ret    
_namei(char *path, int parent, char *name)
{
  struct inode *ip, *next;

  if(*path == '/')
    ip = iget(ROOTDEV, 1);
  101e13:	ba 01 00 00 00       	mov    $0x1,%edx
  101e18:	b8 01 00 00 00       	mov    $0x1,%eax
  101e1d:	e8 ee f2 ff ff       	call   101110 <iget>
  101e22:	89 c7                	mov    %eax,%edi
  101e24:	e9 da fe ff ff       	jmp    101d03 <_namei+0x33>
      iunlockput(ip);
      return 0;
    }
    if(parent && *path == '\0'){
      // Stop one level early.
      iunlock(ip);
  101e29:	89 3c 24             	mov    %edi,(%esp)
  101e2c:	e8 df f7 ff ff       	call   101610 <iunlock>
  if(parent){
    iput(ip);
    return 0;
  }
  return ip;
}
  101e31:	83 c4 2c             	add    $0x2c,%esp
  101e34:	89 f8                	mov    %edi,%eax
  101e36:	5b                   	pop    %ebx
  101e37:	5e                   	pop    %esi
  101e38:	5f                   	pop    %edi
  101e39:	5d                   	pop    %ebp
  101e3a:	c3                   	ret    
    }
    iunlockput(ip);
    ip = next;
  }
  if(parent){
    iput(ip);
  101e3b:	89 3c 24             	mov    %edi,(%esp)
    return 0;
  101e3e:	31 ff                	xor    %edi,%edi
    }
    iunlockput(ip);
    ip = next;
  }
  if(parent){
    iput(ip);
  101e40:	e8 7b f9 ff ff       	call   1017c0 <iput>
    return 0;
  101e45:	e9 cf fe ff ff       	jmp    101d19 <_namei+0x49>
  101e4a:	8d b6 00 00 00 00    	lea    0x0(%esi),%esi

00101e50 <dirlink>:
}

// Write a new directory entry (name, ino) into the directory dp.
int
dirlink(struct inode *dp, char *name, uint ino)
{
  101e50:	55                   	push   %ebp
  101e51:	89 e5                	mov    %esp,%ebp
  101e53:	57                   	push   %edi
  101e54:	56                   	push   %esi
  101e55:	53                   	push   %ebx
  101e56:	83 ec 2c             	sub    $0x2c,%esp
  101e59:	8b 75 08             	mov    0x8(%ebp),%esi
  int off;
  struct dirent de;
  struct inode *ip;

  // Check that name is not present.
  if((ip = dirlookup(dp, name, 0)) != 0){
  101e5c:	8b 45 0c             	mov    0xc(%ebp),%eax
  101e5f:	c7 44 24 08 00 00 00 	movl   $0x0,0x8(%esp)
  101e66:	00 
  101e67:	89 34 24             	mov    %esi,(%esp)
  101e6a:	89 44 24 04          	mov    %eax,0x4(%esp)
  101e6e:	e8 5d fd ff ff       	call   101bd0 <dirlookup>
  101e73:	85 c0                	test   %eax,%eax
  101e75:	0f 85 89 00 00 00    	jne    101f04 <dirlink+0xb4>
    iput(ip);
    return -1;
  }

  // Look for an empty dirent.
  for(off = 0; off < dp->size; off += sizeof(de)){
  101e7b:	8b 7e 18             	mov    0x18(%esi),%edi
  101e7e:	85 ff                	test   %edi,%edi
  101e80:	0f 84 8d 00 00 00    	je     101f13 <dirlink+0xc3>
    if(readi(dp, (char*)&de, off, sizeof(de)) != sizeof(de))
  101e86:	8d 7d d8             	lea    -0x28(%ebp),%edi
    iput(ip);
    return -1;
  }

  // Look for an empty dirent.
  for(off = 0; off < dp->size; off += sizeof(de)){
  101e89:	31 db                	xor    %ebx,%ebx
  101e8b:	eb 0b                	jmp    101e98 <dirlink+0x48>
  101e8d:	8d 76 00             	lea    0x0(%esi),%esi
  101e90:	83 c3 10             	add    $0x10,%ebx
  101e93:	39 5e 18             	cmp    %ebx,0x18(%esi)
  101e96:	76 24                	jbe    101ebc <dirlink+0x6c>
    if(readi(dp, (char*)&de, off, sizeof(de)) != sizeof(de))
  101e98:	c7 44 24 0c 10 00 00 	movl   $0x10,0xc(%esp)
  101e9f:	00 
  101ea0:	89 5c 24 08          	mov    %ebx,0x8(%esp)
  101ea4:	89 7c 24 04          	mov    %edi,0x4(%esp)
  101ea8:	89 34 24             	mov    %esi,(%esp)
  101eab:	e8 a0 fa ff ff       	call   101950 <readi>
  101eb0:	83 f8 10             	cmp    $0x10,%eax
  101eb3:	75 65                	jne    101f1a <dirlink+0xca>
      panic("dirlink read");
    if(de.inum == 0)
  101eb5:	66 83 7d d8 00       	cmpw   $0x0,-0x28(%ebp)
  101eba:	75 d4                	jne    101e90 <dirlink+0x40>
      break;
  }

  strncpy(de.name, name, DIRSIZ);
  101ebc:	8b 45 0c             	mov    0xc(%ebp),%eax
  101ebf:	c7 44 24 08 0e 00 00 	movl   $0xe,0x8(%esp)
  101ec6:	00 
  101ec7:	89 44 24 04          	mov    %eax,0x4(%esp)
  101ecb:	8d 45 da             	lea    -0x26(%ebp),%eax
  101ece:	89 04 24             	mov    %eax,(%esp)
  101ed1:	e8 9a 22 00 00       	call   104170 <strncpy>
  de.inum = ino;
  101ed6:	8b 45 10             	mov    0x10(%ebp),%eax
  if(writei(dp, (char*)&de, off, sizeof(de)) != sizeof(de))
  101ed9:	c7 44 24 0c 10 00 00 	movl   $0x10,0xc(%esp)
  101ee0:	00 
  101ee1:	89 5c 24 08          	mov    %ebx,0x8(%esp)
  101ee5:	89 7c 24 04          	mov    %edi,0x4(%esp)
    if(de.inum == 0)
      break;
  }

  strncpy(de.name, name, DIRSIZ);
  de.inum = ino;
  101ee9:	66 89 45 d8          	mov    %ax,-0x28(%ebp)
  if(writei(dp, (char*)&de, off, sizeof(de)) != sizeof(de))
  101eed:	89 34 24             	mov    %esi,(%esp)
  101ef0:	e8 7b fb ff ff       	call   101a70 <writei>
  101ef5:	83 f8 10             	cmp    $0x10,%eax
  101ef8:	75 2c                	jne    101f26 <dirlink+0xd6>
    panic("dirlink");
  
  return 0;
  101efa:	31 c0                	xor    %eax,%eax
}
  101efc:	83 c4 2c             	add    $0x2c,%esp
  101eff:	5b                   	pop    %ebx
  101f00:	5e                   	pop    %esi
  101f01:	5f                   	pop    %edi
  101f02:	5d                   	pop    %ebp
  101f03:	c3                   	ret    
  struct dirent de;
  struct inode *ip;

  // Check that name is not present.
  if((ip = dirlookup(dp, name, 0)) != 0){
    iput(ip);
  101f04:	89 04 24             	mov    %eax,(%esp)
  101f07:	e8 b4 f8 ff ff       	call   1017c0 <iput>
    return -1;
  101f0c:	b8 ff ff ff ff       	mov    $0xffffffff,%eax
  101f11:	eb e9                	jmp    101efc <dirlink+0xac>
  }

  // Look for an empty dirent.
  for(off = 0; off < dp->size; off += sizeof(de)){
    if(readi(dp, (char*)&de, off, sizeof(de)) != sizeof(de))
  101f13:	8d 7d d8             	lea    -0x28(%ebp),%edi
    iput(ip);
    return -1;
  }

  // Look for an empty dirent.
  for(off = 0; off < dp->size; off += sizeof(de)){
  101f16:	31 db                	xor    %ebx,%ebx
  101f18:	eb a2                	jmp    101ebc <dirlink+0x6c>
    if(readi(dp, (char*)&de, off, sizeof(de)) != sizeof(de))
      panic("dirlink read");
  101f1a:	c7 04 24 5d 61 10 00 	movl   $0x10615d,(%esp)
  101f21:	e8 da e9 ff ff       	call   100900 <panic>
  }

  strncpy(de.name, name, DIRSIZ);
  de.inum = ino;
  if(writei(dp, (char*)&de, off, sizeof(de)) != sizeof(de))
    panic("dirlink");
  101f26:	c7 04 24 6a 61 10 00 	movl   $0x10616a,(%esp)
  101f2d:	e8 ce e9 ff ff       	call   100900 <panic>
  101f32:	8d b4 26 00 00 00 00 	lea    0x0(%esi,%eiz,1),%esi
  101f39:	8d bc 27 00 00 00 00 	lea    0x0(%edi,%eiz,1),%edi

00101f40 <namei>:
  return ip;
}

struct inode*
namei(char *path)
{
  101f40:	55                   	push   %ebp
  char name[DIRSIZ];
  return _namei(path, 0, name);
  101f41:	31 d2                	xor    %edx,%edx
  return ip;
}

struct inode*
namei(char *path)
{
  101f43:	89 e5                	mov    %esp,%ebp
  101f45:	83 ec 18             	sub    $0x18,%esp
  char name[DIRSIZ];
  return _namei(path, 0, name);
  101f48:	8b 45 08             	mov    0x8(%ebp),%eax
  101f4b:	8d 4d ea             	lea    -0x16(%ebp),%ecx
  101f4e:	e8 7d fd ff ff       	call   101cd0 <_namei>
}
  101f53:	c9                   	leave  
  101f54:	c3                   	ret    
  101f55:	8d 74 26 00          	lea    0x0(%esi,%eiz,1),%esi
  101f59:	8d bc 27 00 00 00 00 	lea    0x0(%edi,%eiz,1),%edi

00101f60 <nameiparent>:

struct inode*
nameiparent(char *path, char *name)
{
  101f60:	55                   	push   %ebp
  return _namei(path, 1, name);
  101f61:	ba 01 00 00 00       	mov    $0x1,%edx
  return _namei(path, 0, name);
}

struct inode*
nameiparent(char *path, char *name)
{
  101f66:	89 e5                	mov    %esp,%ebp
  101f68:	83 ec 08             	sub    $0x8,%esp
  return _namei(path, 1, name);
  101f6b:	8b 4d 0c             	mov    0xc(%ebp),%ecx
  101f6e:	8b 45 08             	mov    0x8(%ebp),%eax
}
  101f71:	c9                   	leave  
}

struct inode*
nameiparent(char *path, char *name)
{
  return _namei(path, 1, name);
  101f72:	e9 59 fd ff ff       	jmp    101cd0 <_namei>
  101f77:	90                   	nop
  101f78:	90                   	nop
  101f79:	90                   	nop
  101f7a:	90                   	nop
  101f7b:	90                   	nop
  101f7c:	90                   	nop
  101f7d:	90                   	nop
  101f7e:	90                   	nop
  101f7f:	90                   	nop

00101f80 <ide_wait_ready>:
static void ide_start_request();

// Wait for IDE disk to become ready.
static int
ide_wait_ready(int check_error)
{
  101f80:	55                   	push   %ebp
  101f81:	89 c1                	mov    %eax,%ecx
  101f83:	89 e5                	mov    %esp,%ebp
static inline uchar
inb(ushort port)
{
  uchar data;

  asm volatile("in %1,%0" : "=a" (data) : "d" (port));
  101f85:	ba f7 01 00 00       	mov    $0x1f7,%edx
  101f8a:	8d b6 00 00 00 00    	lea    0x0(%esi),%esi
  101f90:	ec                   	in     (%dx),%al
  int r;

  while(((r = inb(0x1f7)) & IDE_BSY) || !(r & IDE_DRDY))
  101f91:	0f b6 c0             	movzbl %al,%eax
  101f94:	a8 80                	test   $0x80,%al
  101f96:	75 f8                	jne    101f90 <ide_wait_ready+0x10>
  101f98:	a8 40                	test   $0x40,%al
  101f9a:	74 f4                	je     101f90 <ide_wait_ready+0x10>
    ;
  if(check_error && (r & (IDE_DF|IDE_ERR)) != 0)
    return -1;
  return 0;
  101f9c:	31 d2                	xor    %edx,%edx
{
  int r;

  while(((r = inb(0x1f7)) & IDE_BSY) || !(r & IDE_DRDY))
    ;
  if(check_error && (r & (IDE_DF|IDE_ERR)) != 0)
  101f9e:	85 c9                	test   %ecx,%ecx
  101fa0:	75 04                	jne    101fa6 <ide_wait_ready+0x26>
    return -1;
  return 0;
}
  101fa2:	89 d0                	mov    %edx,%eax
  101fa4:	5d                   	pop    %ebp
  101fa5:	c3                   	ret    
{
  int r;

  while(((r = inb(0x1f7)) & IDE_BSY) || !(r & IDE_DRDY))
    ;
  if(check_error && (r & (IDE_DF|IDE_ERR)) != 0)
  101fa6:	83 e0 21             	and    $0x21,%eax
    return -1;
  return 0;
  101fa9:	83 f8 01             	cmp    $0x1,%eax
  101fac:	19 d2                	sbb    %edx,%edx
  101fae:	f7 d2                	not    %edx
  101fb0:	eb f0                	jmp    101fa2 <ide_wait_ready+0x22>
  101fb2:	8d b4 26 00 00 00 00 	lea    0x0(%esi,%eiz,1),%esi
  101fb9:	8d bc 27 00 00 00 00 	lea    0x0(%edi,%eiz,1),%edi

00101fc0 <ide_start_request>:
}

// Start the request for b.  Caller must hold ide_lock.
static void
ide_start_request(struct buf *b)
{
  101fc0:	55                   	push   %ebp
  101fc1:	89 e5                	mov    %esp,%ebp
  101fc3:	56                   	push   %esi
  101fc4:	89 c6                	mov    %eax,%esi
  101fc6:	83 ec 14             	sub    $0x14,%esp
  if(b == 0)
  101fc9:	85 c0                	test   %eax,%eax
  101fcb:	0f 84 7d 00 00 00    	je     10204e <ide_start_request+0x8e>
    panic("ide_start_request");

  ide_wait_ready(0);
  101fd1:	31 c0                	xor    %eax,%eax
  101fd3:	e8 a8 ff ff ff       	call   101f80 <ide_wait_ready>
}

static inline void
outb(ushort port, uchar data)
{
  asm volatile("out %0,%1" : : "a" (data), "d" (port));
  101fd8:	ba f6 03 00 00       	mov    $0x3f6,%edx
  101fdd:	31 c0                	xor    %eax,%eax
  101fdf:	ee                   	out    %al,(%dx)
  101fe0:	ba f2 01 00 00       	mov    $0x1f2,%edx
  101fe5:	b8 01 00 00 00       	mov    $0x1,%eax
  101fea:	ee                   	out    %al,(%dx)
  outb(0x3f6, 0);  // generate interrupt
  outb(0x1f2, 1);  // number of sectors
  outb(0x1f3, b->sector & 0xff);
  101feb:	8b 4e 08             	mov    0x8(%esi),%ecx
  101fee:	b2 f3                	mov    $0xf3,%dl
  101ff0:	89 c8                	mov    %ecx,%eax
  101ff2:	ee                   	out    %al,(%dx)
  outb(0x1f4, (b->sector >> 8) & 0xff);
  101ff3:	89 c8                	mov    %ecx,%eax
  101ff5:	b2 f4                	mov    $0xf4,%dl
  101ff7:	c1 e8 08             	shr    $0x8,%eax
  101ffa:	ee                   	out    %al,(%dx)
  outb(0x1f5, (b->sector >> 16) & 0xff);
  101ffb:	89 c8                	mov    %ecx,%eax
  101ffd:	b2 f5                	mov    $0xf5,%dl
  101fff:	c1 e8 10             	shr    $0x10,%eax
  102002:	ee                   	out    %al,(%dx)
  outb(0x1f6, 0xe0 | ((b->dev&1)<<4) | ((b->sector>>24)&0x0f));
  102003:	8b 46 04             	mov    0x4(%esi),%eax
  102006:	c1 e9 18             	shr    $0x18,%ecx
  102009:	b2 f6                	mov    $0xf6,%dl
  10200b:	83 e1 0f             	and    $0xf,%ecx
  10200e:	83 e0 01             	and    $0x1,%eax
  102011:	c1 e0 04             	shl    $0x4,%eax
  102014:	09 c8                	or     %ecx,%eax
  102016:	83 c8 e0             	or     $0xffffffe0,%eax
  102019:	ee                   	out    %al,(%dx)
  if(b->flags & B_DIRTY){
  10201a:	f6 06 04             	testb  $0x4,(%esi)
  10201d:	75 11                	jne    102030 <ide_start_request+0x70>
  10201f:	ba f7 01 00 00       	mov    $0x1f7,%edx
  102024:	b8 20 00 00 00       	mov    $0x20,%eax
  102029:	ee                   	out    %al,(%dx)
    outb(0x1f7, IDE_CMD_WRITE);
    outsl(0x1f0, b->data, 512/4);
  } else {
    outb(0x1f7, IDE_CMD_READ);
  }
}
  10202a:	83 c4 14             	add    $0x14,%esp
  10202d:	5e                   	pop    %esi
  10202e:	5d                   	pop    %ebp
  10202f:	c3                   	ret    
  102030:	b2 f7                	mov    $0xf7,%dl
  102032:	b8 30 00 00 00       	mov    $0x30,%eax
  102037:	ee                   	out    %al,(%dx)
}

static inline void
outsl(int port, const void *addr, int cnt)
{
  asm volatile("cld\n\trepne\n\toutsl"    :
  102038:	b9 80 00 00 00       	mov    $0x80,%ecx
  outb(0x1f4, (b->sector >> 8) & 0xff);
  outb(0x1f5, (b->sector >> 16) & 0xff);
  outb(0x1f6, 0xe0 | ((b->dev&1)<<4) | ((b->sector>>24)&0x0f));
  if(b->flags & B_DIRTY){
    outb(0x1f7, IDE_CMD_WRITE);
    outsl(0x1f0, b->data, 512/4);
  10203d:	83 c6 18             	add    $0x18,%esi
  102040:	ba f0 01 00 00       	mov    $0x1f0,%edx
  102045:	fc                   	cld    
  102046:	f2 6f                	repnz outsl %ds:(%esi),(%dx)
  } else {
    outb(0x1f7, IDE_CMD_READ);
  }
}
  102048:	83 c4 14             	add    $0x14,%esp
  10204b:	5e                   	pop    %esi
  10204c:	5d                   	pop    %ebp
  10204d:	c3                   	ret    
// Start the request for b.  Caller must hold ide_lock.
static void
ide_start_request(struct buf *b)
{
  if(b == 0)
    panic("ide_start_request");
  10204e:	c7 04 24 72 61 10 00 	movl   $0x106172,(%esp)
  102055:	e8 a6 e8 ff ff       	call   100900 <panic>
  10205a:	8d b6 00 00 00 00    	lea    0x0(%esi),%esi

00102060 <ide_init>:
  return 0;
}

void
ide_init(void)
{
  102060:	55                   	push   %ebp
  102061:	89 e5                	mov    %esp,%ebp
  102063:	83 ec 18             	sub    $0x18,%esp
  int i;

  initlock(&ide_lock, "ide");
  102066:	c7 44 24 04 84 61 10 	movl   $0x106184,0x4(%esp)
  10206d:	00 
  10206e:	c7 04 24 20 78 10 00 	movl   $0x107820,(%esp)
  102075:	e8 76 1d 00 00       	call   103df0 <initlock>
  pic_enable(IRQ_IDE);
  10207a:	c7 04 24 0e 00 00 00 	movl   $0xe,(%esp)
  102081:	e8 8a 0c 00 00       	call   102d10 <pic_enable>
  ioapic_enable(IRQ_IDE, ncpu - 1);
  102086:	a1 40 b1 10 00       	mov    0x10b140,%eax
  10208b:	c7 04 24 0e 00 00 00 	movl   $0xe,(%esp)
  102092:	83 e8 01             	sub    $0x1,%eax
  102095:	89 44 24 04          	mov    %eax,0x4(%esp)
  102099:	e8 52 02 00 00       	call   1022f0 <ioapic_enable>
  ide_wait_ready(0);
  10209e:	31 c0                	xor    %eax,%eax
  1020a0:	e8 db fe ff ff       	call   101f80 <ide_wait_ready>
}

static inline void
outb(ushort port, uchar data)
{
  asm volatile("out %0,%1" : : "a" (data), "d" (port));
  1020a5:	ba f6 01 00 00       	mov    $0x1f6,%edx
  1020aa:	b8 f0 ff ff ff       	mov    $0xfffffff0,%eax
  1020af:	ee                   	out    %al,(%dx)
  1020b0:	b9 e8 03 00 00       	mov    $0x3e8,%ecx
static inline uchar
inb(ushort port)
{
  uchar data;

  asm volatile("in %1,%0" : "=a" (data) : "d" (port));
  1020b5:	b2 f7                	mov    $0xf7,%dl
  1020b7:	eb 0c                	jmp    1020c5 <ide_init+0x65>
  1020b9:	8d b4 26 00 00 00 00 	lea    0x0(%esi,%eiz,1),%esi
  
  // Check if disk 1 is present
  outb(0x1f6, 0xe0 | (1<<4));
  for(i=0; i<1000; i++){
  1020c0:	83 e9 01             	sub    $0x1,%ecx
  1020c3:	74 0f                	je     1020d4 <ide_init+0x74>
  1020c5:	ec                   	in     (%dx),%al
    if(inb(0x1f7) != 0){
  1020c6:	84 c0                	test   %al,%al
  1020c8:	74 f6                	je     1020c0 <ide_init+0x60>
      disk_1_present = 1;
  1020ca:	c7 05 00 78 10 00 01 	movl   $0x1,0x107800
  1020d1:	00 00 00 
}

static inline void
outb(ushort port, uchar data)
{
  asm volatile("out %0,%1" : : "a" (data), "d" (port));
  1020d4:	ba f6 01 00 00       	mov    $0x1f6,%edx
  1020d9:	b8 e0 ff ff ff       	mov    $0xffffffe0,%eax
  1020de:	ee                   	out    %al,(%dx)
    }
  }
  
  // Switch back to disk 0.
  outb(0x1f6, 0xe0 | (0<<4));
}
  1020df:	c9                   	leave  
  1020e0:	c3                   	ret    
  1020e1:	eb 0d                	jmp    1020f0 <ide_intr>
  1020e3:	90                   	nop
  1020e4:	90                   	nop
  1020e5:	90                   	nop
  1020e6:	90                   	nop
  1020e7:	90                   	nop
  1020e8:	90                   	nop
  1020e9:	90                   	nop
  1020ea:	90                   	nop
  1020eb:	90                   	nop
  1020ec:	90                   	nop
  1020ed:	90                   	nop
  1020ee:	90                   	nop
  1020ef:	90                   	nop

001020f0 <ide_intr>:
}

// Interrupt handler.
void
ide_intr(void)
{
  1020f0:	55                   	push   %ebp
  1020f1:	89 e5                	mov    %esp,%ebp
  1020f3:	57                   	push   %edi
  1020f4:	53                   	push   %ebx
  1020f5:	83 ec 10             	sub    $0x10,%esp
  struct buf *b;

  acquire(&ide_lock);
  1020f8:	c7 04 24 20 78 10 00 	movl   $0x107820,(%esp)
  1020ff:	e8 ec 1d 00 00       	call   103ef0 <acquire>
  if((b = ide_queue) == 0){
  102104:	8b 1d 54 78 10 00    	mov    0x107854,%ebx
  10210a:	85 db                	test   %ebx,%ebx
  10210c:	74 27                	je     102135 <ide_intr+0x45>
    release(&ide_lock);
    return;
  }

  // Read data if needed.
  if(!(b->flags & B_DIRTY) && ide_wait_ready(1) >= 0)
  10210e:	8b 03                	mov    (%ebx),%eax
  102110:	a8 04                	test   $0x4,%al
  102112:	74 34                	je     102148 <ide_intr+0x58>
    insl(0x1f0, b->data, 512/4);
  
  // Wake process waiting for this buf.
  b->flags |= B_VALID;
  102114:	83 c8 02             	or     $0x2,%eax
  b->flags &= ~B_DIRTY;
  102117:	83 e0 fb             	and    $0xfffffffb,%eax
  10211a:	89 03                	mov    %eax,(%ebx)
  wakeup(b);
  10211c:	89 1c 24             	mov    %ebx,(%esp)
  10211f:	e8 8c 18 00 00       	call   1039b0 <wakeup>
  
  // Start disk on next buf in queue.
  if((ide_queue = b->qnext) != 0)
  102124:	8b 43 14             	mov    0x14(%ebx),%eax
  102127:	85 c0                	test   %eax,%eax
  102129:	a3 54 78 10 00       	mov    %eax,0x107854
  10212e:	74 05                	je     102135 <ide_intr+0x45>
    ide_start_request(ide_queue);
  102130:	e8 8b fe ff ff       	call   101fc0 <ide_start_request>

  release(&ide_lock);
  102135:	c7 04 24 20 78 10 00 	movl   $0x107820,(%esp)
  10213c:	e8 9f 1e 00 00       	call   103fe0 <release>
}
  102141:	83 c4 10             	add    $0x10,%esp
  102144:	5b                   	pop    %ebx
  102145:	5f                   	pop    %edi
  102146:	5d                   	pop    %ebp
  102147:	c3                   	ret    
    release(&ide_lock);
    return;
  }

  // Read data if needed.
  if(!(b->flags & B_DIRTY) && ide_wait_ready(1) >= 0)
  102148:	b8 01 00 00 00       	mov    $0x1,%eax
  10214d:	e8 2e fe ff ff       	call   101f80 <ide_wait_ready>
  102152:	85 c0                	test   %eax,%eax
  102154:	78 10                	js     102166 <ide_intr+0x76>
    insl(0x1f0, b->data, 512/4);
  102156:	8d 7b 18             	lea    0x18(%ebx),%edi
}

static inline void
insl(int port, void *addr, int cnt)
{
  asm volatile("cld\n\trepne\n\tinsl"     :
  102159:	b9 80 00 00 00       	mov    $0x80,%ecx
  10215e:	ba f0 01 00 00       	mov    $0x1f0,%edx
  102163:	fc                   	cld    
  102164:	f2 6d                	repnz insl (%dx),%es:(%edi)
  102166:	8b 03                	mov    (%ebx),%eax
  102168:	eb aa                	jmp    102114 <ide_intr+0x24>
  10216a:	8d b6 00 00 00 00    	lea    0x0(%esi),%esi

00102170 <ide_rw>:
// Sync buf with disk. 
// If B_DIRTY is set, write buf to disk, clear B_DIRTY, set B_VALID.
// Else if B_VALID is not set, read buf from disk, set B_VALID.
void
ide_rw(struct buf *b)
{
  102170:	55                   	push   %ebp
  102171:	89 e5                	mov    %esp,%ebp
  102173:	53                   	push   %ebx
  102174:	83 ec 14             	sub    $0x14,%esp
  102177:	8b 5d 08             	mov    0x8(%ebp),%ebx
  struct buf **pp;

  if(!(b->flags & B_BUSY))
  10217a:	8b 03                	mov    (%ebx),%eax
  10217c:	a8 01                	test   $0x1,%al
  10217e:	0f 84 90 00 00 00    	je     102214 <ide_rw+0xa4>
    panic("ide_rw: buf not busy");
  if((b->flags & (B_VALID|B_DIRTY)) == B_VALID)
  102184:	83 e0 06             	and    $0x6,%eax
  102187:	83 f8 02             	cmp    $0x2,%eax
  10218a:	0f 84 9c 00 00 00    	je     10222c <ide_rw+0xbc>
    panic("ide_rw: nothing to do");
  if(b->dev != 0 && !disk_1_present)
  102190:	8b 53 04             	mov    0x4(%ebx),%edx
  102193:	85 d2                	test   %edx,%edx
  102195:	74 0d                	je     1021a4 <ide_rw+0x34>
  102197:	a1 00 78 10 00       	mov    0x107800,%eax
  10219c:	85 c0                	test   %eax,%eax
  10219e:	0f 84 7c 00 00 00    	je     102220 <ide_rw+0xb0>
    panic("ide disk 1 not present");

  acquire(&ide_lock);
  1021a4:	c7 04 24 20 78 10 00 	movl   $0x107820,(%esp)
  1021ab:	e8 40 1d 00 00       	call   103ef0 <acquire>

  // Append b to ide_queue.
  b->qnext = 0;
  for(pp=&ide_queue; *pp; pp=&(*pp)->qnext)
  1021b0:	a1 54 78 10 00       	mov    0x107854,%eax
  1021b5:	ba 54 78 10 00       	mov    $0x107854,%edx
    panic("ide disk 1 not present");

  acquire(&ide_lock);

  // Append b to ide_queue.
  b->qnext = 0;
  1021ba:	c7 43 14 00 00 00 00 	movl   $0x0,0x14(%ebx)
  for(pp=&ide_queue; *pp; pp=&(*pp)->qnext)
  1021c1:	85 c0                	test   %eax,%eax
  1021c3:	74 0d                	je     1021d2 <ide_rw+0x62>
  1021c5:	8d 76 00             	lea    0x0(%esi),%esi
  1021c8:	8d 50 14             	lea    0x14(%eax),%edx
  1021cb:	8b 40 14             	mov    0x14(%eax),%eax
  1021ce:	85 c0                	test   %eax,%eax
  1021d0:	75 f6                	jne    1021c8 <ide_rw+0x58>
    ;
  *pp = b;
  1021d2:	89 1a                	mov    %ebx,(%edx)
  
  // Start disk if necessary.
  if(ide_queue == b)
  1021d4:	39 1d 54 78 10 00    	cmp    %ebx,0x107854
  1021da:	75 14                	jne    1021f0 <ide_rw+0x80>
  1021dc:	eb 2d                	jmp    10220b <ide_rw+0x9b>
  1021de:	66 90                	xchg   %ax,%ax
    ide_start_request(b);
  
  // Wait for request to finish.
  // Assuming will not sleep too long: ignore cp->killed.
  while((b->flags & (B_VALID|B_DIRTY)) != B_VALID)
    sleep(b, &ide_lock);
  1021e0:	c7 44 24 04 20 78 10 	movl   $0x107820,0x4(%esp)
  1021e7:	00 
  1021e8:	89 1c 24             	mov    %ebx,(%esp)
  1021eb:	e8 f0 16 00 00       	call   1038e0 <sleep>
  if(ide_queue == b)
    ide_start_request(b);
  
  // Wait for request to finish.
  // Assuming will not sleep too long: ignore cp->killed.
  while((b->flags & (B_VALID|B_DIRTY)) != B_VALID)
  1021f0:	8b 03                	mov    (%ebx),%eax
  1021f2:	83 e0 06             	and    $0x6,%eax
  1021f5:	83 f8 02             	cmp    $0x2,%eax
  1021f8:	75 e6                	jne    1021e0 <ide_rw+0x70>
    sleep(b, &ide_lock);

  release(&ide_lock);
  1021fa:	c7 45 08 20 78 10 00 	movl   $0x107820,0x8(%ebp)
}
  102201:	83 c4 14             	add    $0x14,%esp
  102204:	5b                   	pop    %ebx
  102205:	5d                   	pop    %ebp
  // Wait for request to finish.
  // Assuming will not sleep too long: ignore cp->killed.
  while((b->flags & (B_VALID|B_DIRTY)) != B_VALID)
    sleep(b, &ide_lock);

  release(&ide_lock);
  102206:	e9 d5 1d 00 00       	jmp    103fe0 <release>
    ;
  *pp = b;
  
  // Start disk if necessary.
  if(ide_queue == b)
    ide_start_request(b);
  10220b:	89 d8                	mov    %ebx,%eax
  10220d:	e8 ae fd ff ff       	call   101fc0 <ide_start_request>
  102212:	eb dc                	jmp    1021f0 <ide_rw+0x80>
ide_rw(struct buf *b)
{
  struct buf **pp;

  if(!(b->flags & B_BUSY))
    panic("ide_rw: buf not busy");
  102214:	c7 04 24 88 61 10 00 	movl   $0x106188,(%esp)
  10221b:	e8 e0 e6 ff ff       	call   100900 <panic>
  if((b->flags & (B_VALID|B_DIRTY)) == B_VALID)
    panic("ide_rw: nothing to do");
  if(b->dev != 0 && !disk_1_present)
    panic("ide disk 1 not present");
  102220:	c7 04 24 b3 61 10 00 	movl   $0x1061b3,(%esp)
  102227:	e8 d4 e6 ff ff       	call   100900 <panic>
  struct buf **pp;

  if(!(b->flags & B_BUSY))
    panic("ide_rw: buf not busy");
  if((b->flags & (B_VALID|B_DIRTY)) == B_VALID)
    panic("ide_rw: nothing to do");
  10222c:	c7 04 24 9d 61 10 00 	movl   $0x10619d,(%esp)
  102233:	e8 c8 e6 ff ff       	call   100900 <panic>
  102238:	90                   	nop
  102239:	90                   	nop
  10223a:	90                   	nop
  10223b:	90                   	nop
  10223c:	90                   	nop
  10223d:	90                   	nop
  10223e:	90                   	nop
  10223f:	90                   	nop

00102240 <ioapic_init>:
  ioapic->data = data;
}

void
ioapic_init(void)
{
  102240:	55                   	push   %ebp
  102241:	89 e5                	mov    %esp,%ebp
  102243:	56                   	push   %esi
  102244:	53                   	push   %ebx
  102245:	83 ec 10             	sub    $0x10,%esp
  int i, id, maxintr;

  if(!ismp)
  102248:	a1 c0 aa 10 00       	mov    0x10aac0,%eax
  10224d:	85 c0                	test   %eax,%eax
  10224f:	0f 84 87 00 00 00    	je     1022dc <ioapic_init+0x9c>
};

static uint
ioapic_read(int reg)
{
  ioapic->reg = reg;
  102255:	c7 05 00 00 c0 fe 01 	movl   $0x1,0xfec00000
  10225c:	00 00 00 
  return ioapic->data;
  10225f:	8b 35 10 00 c0 fe    	mov    0xfec00010,%esi
    return;

  ioapic = (volatile struct ioapic*)IOAPIC;
  maxintr = (ioapic_read(REG_VER) >> 16) & 0xFF;
  id = ioapic_read(REG_ID) >> 24;
  if(id != ioapic_id)
  102265:	b8 00 00 c0 fe       	mov    $0xfec00000,%eax
};

static uint
ioapic_read(int reg)
{
  ioapic->reg = reg;
  10226a:	c7 05 00 00 c0 fe 00 	movl   $0x0,0xfec00000
  102271:	00 00 00 
  return ioapic->data;
  102274:	8b 15 10 00 c0 fe    	mov    0xfec00010,%edx
    return;

  ioapic = (volatile struct ioapic*)IOAPIC;
  maxintr = (ioapic_read(REG_VER) >> 16) & 0xFF;
  id = ioapic_read(REG_ID) >> 24;
  if(id != ioapic_id)
  10227a:	0f b6 0d c4 aa 10 00 	movzbl 0x10aac4,%ecx
  int i, id, maxintr;

  if(!ismp)
    return;

  ioapic = (volatile struct ioapic*)IOAPIC;
  102281:	c7 05 74 aa 10 00 00 	movl   $0xfec00000,0x10aa74
  102288:	00 c0 fe 
  maxintr = (ioapic_read(REG_VER) >> 16) & 0xFF;
  10228b:	c1 ee 10             	shr    $0x10,%esi
  id = ioapic_read(REG_ID) >> 24;
  10228e:	c1 ea 18             	shr    $0x18,%edx

  if(!ismp)
    return;

  ioapic = (volatile struct ioapic*)IOAPIC;
  maxintr = (ioapic_read(REG_VER) >> 16) & 0xFF;
  102291:	81 e6 ff 00 00 00    	and    $0xff,%esi
  id = ioapic_read(REG_ID) >> 24;
  if(id != ioapic_id)
  102297:	39 d1                	cmp    %edx,%ecx
  102299:	74 11                	je     1022ac <ioapic_init+0x6c>
    cprintf("ioapic_init: id isn't equal to ioapic_id; not a MP\n");
  10229b:	c7 04 24 cc 61 10 00 	movl   $0x1061cc,(%esp)
  1022a2:	e8 a9 e2 ff ff       	call   100550 <cprintf>
  1022a7:	a1 74 aa 10 00       	mov    0x10aa74,%eax
    return;

  ioapic = (volatile struct ioapic*)IOAPIC;
  maxintr = (ioapic_read(REG_VER) >> 16) & 0xFF;
  id = ioapic_read(REG_ID) >> 24;
  if(id != ioapic_id)
  1022ac:	b9 10 00 00 00       	mov    $0x10,%ecx
  1022b1:	31 d2                	xor    %edx,%edx
  1022b3:	90                   	nop
  1022b4:	8d 74 26 00          	lea    0x0(%esi,%eiz,1),%esi
  ioapic->reg = reg;
  ioapic->data = data;
}

void
ioapic_init(void)
  1022b8:	8d 5a 20             	lea    0x20(%edx),%ebx
  if(id != ioapic_id)
    cprintf("ioapic_init: id isn't equal to ioapic_id; not a MP\n");

  // Mark all interrupts edge-triggered, active high, disabled,
  // and not routed to any CPUs.
  for(i = 0; i <= maxintr; i++){
  1022bb:	83 c2 01             	add    $0x1,%edx
    ioapic_write(REG_TABLE+2*i, INT_DISABLED | (IRQ_OFFSET + i));
  1022be:	81 cb 00 00 01 00    	or     $0x10000,%ebx
}

static void
ioapic_write(int reg, uint data)
{
  ioapic->reg = reg;
  1022c4:	89 08                	mov    %ecx,(%eax)
  ioapic->data = data;
  1022c6:	89 58 10             	mov    %ebx,0x10(%eax)
  1022c9:	8d 59 01             	lea    0x1(%ecx),%ebx
  if(id != ioapic_id)
    cprintf("ioapic_init: id isn't equal to ioapic_id; not a MP\n");

  // Mark all interrupts edge-triggered, active high, disabled,
  // and not routed to any CPUs.
  for(i = 0; i <= maxintr; i++){
  1022cc:	83 c1 02             	add    $0x2,%ecx
  1022cf:	39 d6                	cmp    %edx,%esi
}

static void
ioapic_write(int reg, uint data)
{
  ioapic->reg = reg;
  1022d1:	89 18                	mov    %ebx,(%eax)
  ioapic->data = data;
  1022d3:	c7 40 10 00 00 00 00 	movl   $0x0,0x10(%eax)
  if(id != ioapic_id)
    cprintf("ioapic_init: id isn't equal to ioapic_id; not a MP\n");

  // Mark all interrupts edge-triggered, active high, disabled,
  // and not routed to any CPUs.
  for(i = 0; i <= maxintr; i++){
  1022da:	7d dc                	jge    1022b8 <ioapic_init+0x78>
    ioapic_write(REG_TABLE+2*i, INT_DISABLED | (IRQ_OFFSET + i));
    ioapic_write(REG_TABLE+2*i+1, 0);
  }
}
  1022dc:	83 c4 10             	add    $0x10,%esp
  1022df:	5b                   	pop    %ebx
  1022e0:	5e                   	pop    %esi
  1022e1:	5d                   	pop    %ebp
  1022e2:	c3                   	ret    
  1022e3:	8d b6 00 00 00 00    	lea    0x0(%esi),%esi
  1022e9:	8d bc 27 00 00 00 00 	lea    0x0(%edi,%eiz,1),%edi

001022f0 <ioapic_enable>:

void
ioapic_enable(int irq, int cpunum)
{
  if(!ismp)
  1022f0:	8b 15 c0 aa 10 00    	mov    0x10aac0,%edx
  }
}

void
ioapic_enable(int irq, int cpunum)
{
  1022f6:	55                   	push   %ebp
  1022f7:	89 e5                	mov    %esp,%ebp
  1022f9:	8b 45 08             	mov    0x8(%ebp),%eax
  if(!ismp)
  1022fc:	85 d2                	test   %edx,%edx
  1022fe:	74 1f                	je     10231f <ioapic_enable+0x2f>
    return;

  // Mark interrupt edge-triggered, active high,
  // enabled, and routed to the given cpunum,
  // which happens to be that cpu's APIC ID.
  ioapic_write(REG_TABLE+2*irq, IRQ_OFFSET + irq);
  102300:	8d 48 20             	lea    0x20(%eax),%ecx
  102303:	8d 54 00 10          	lea    0x10(%eax,%eax,1),%edx
}

static void
ioapic_write(int reg, uint data)
{
  ioapic->reg = reg;
  102307:	a1 74 aa 10 00       	mov    0x10aa74,%eax
  10230c:	89 10                	mov    %edx,(%eax)

  // Mark interrupt edge-triggered, active high,
  // enabled, and routed to the given cpunum,
  // which happens to be that cpu's APIC ID.
  ioapic_write(REG_TABLE+2*irq, IRQ_OFFSET + irq);
  ioapic_write(REG_TABLE+2*irq+1, cpunum << 24);
  10230e:	83 c2 01             	add    $0x1,%edx

static void
ioapic_write(int reg, uint data)
{
  ioapic->reg = reg;
  ioapic->data = data;
  102311:	89 48 10             	mov    %ecx,0x10(%eax)

  // Mark interrupt edge-triggered, active high,
  // enabled, and routed to the given cpunum,
  // which happens to be that cpu's APIC ID.
  ioapic_write(REG_TABLE+2*irq, IRQ_OFFSET + irq);
  ioapic_write(REG_TABLE+2*irq+1, cpunum << 24);
  102314:	8b 4d 0c             	mov    0xc(%ebp),%ecx
}

static void
ioapic_write(int reg, uint data)
{
  ioapic->reg = reg;
  102317:	89 10                	mov    %edx,(%eax)

  // Mark interrupt edge-triggered, active high,
  // enabled, and routed to the given cpunum,
  // which happens to be that cpu's APIC ID.
  ioapic_write(REG_TABLE+2*irq, IRQ_OFFSET + irq);
  ioapic_write(REG_TABLE+2*irq+1, cpunum << 24);
  102319:	c1 e1 18             	shl    $0x18,%ecx

static void
ioapic_write(int reg, uint data)
{
  ioapic->reg = reg;
  ioapic->data = data;
  10231c:	89 48 10             	mov    %ecx,0x10(%eax)
  // Mark interrupt edge-triggered, active high,
  // enabled, and routed to the given cpunum,
  // which happens to be that cpu's APIC ID.
  ioapic_write(REG_TABLE+2*irq, IRQ_OFFSET + irq);
  ioapic_write(REG_TABLE+2*irq+1, cpunum << 24);
}
  10231f:	5d                   	pop    %ebp
  102320:	c3                   	ret    
  102321:	90                   	nop
  102322:	90                   	nop
  102323:	90                   	nop
  102324:	90                   	nop
  102325:	90                   	nop
  102326:	90                   	nop
  102327:	90                   	nop
  102328:	90                   	nop
  102329:	90                   	nop
  10232a:	90                   	nop
  10232b:	90                   	nop
  10232c:	90                   	nop
  10232d:	90                   	nop
  10232e:	90                   	nop
  10232f:	90                   	nop

00102330 <kfree>:
// which normally should have been returned by a
// call to kalloc(len).  (The exception is when
// initializing the allocator; see kinit above.)
void
kfree(char *v, int len)
{
  102330:	55                   	push   %ebp
  102331:	89 e5                	mov    %esp,%ebp
  102333:	57                   	push   %edi
  102334:	56                   	push   %esi
  102335:	53                   	push   %ebx
  102336:	83 ec 2c             	sub    $0x2c,%esp
  102339:	8b 45 0c             	mov    0xc(%ebp),%eax
  10233c:	8b 5d 08             	mov    0x8(%ebp),%ebx
  struct run *r, *rend, **rp, *p, *pend;

  if(len <= 0 || len % PAGE)
  10233f:	85 c0                	test   %eax,%eax
// which normally should have been returned by a
// call to kalloc(len).  (The exception is when
// initializing the allocator; see kinit above.)
void
kfree(char *v, int len)
{
  102341:	89 45 e4             	mov    %eax,-0x1c(%ebp)
  struct run *r, *rend, **rp, *p, *pend;

  if(len <= 0 || len % PAGE)
  102344:	0f 8e dc 00 00 00    	jle    102426 <kfree+0xf6>
  10234a:	a9 ff 0f 00 00       	test   $0xfff,%eax
  10234f:	0f 85 d1 00 00 00    	jne    102426 <kfree+0xf6>
    panic("kfree");

  // Fill with junk to catch dangling refs.
  memset(v, 1, len);
  102355:	8b 55 e4             	mov    -0x1c(%ebp),%edx
  102358:	c7 44 24 04 01 00 00 	movl   $0x1,0x4(%esp)
  10235f:	00 
  102360:	89 1c 24             	mov    %ebx,(%esp)
  102363:	89 54 24 08          	mov    %edx,0x8(%esp)
  102367:	e8 b4 1c 00 00       	call   104020 <memset>

  acquire(&kalloc_lock);
  10236c:	c7 04 24 80 aa 10 00 	movl   $0x10aa80,(%esp)
  102373:	e8 78 1b 00 00       	call   103ef0 <acquire>
  p = (struct run*)v;
  pend = (struct run*)(v + len);
  for(rp=&freelist; (r=*rp) != 0 && r <= pend; rp=&r->next){
  102378:	a1 b4 aa 10 00       	mov    0x10aab4,%eax
  10237d:	85 c0                	test   %eax,%eax
  10237f:	74 59                	je     1023da <kfree+0xaa>
  // Fill with junk to catch dangling refs.
  memset(v, 1, len);

  acquire(&kalloc_lock);
  p = (struct run*)v;
  pend = (struct run*)(v + len);
  102381:	8b 4d e4             	mov    -0x1c(%ebp),%ecx
  102384:	8d 0c 0b             	lea    (%ebx,%ecx,1),%ecx
  for(rp=&freelist; (r=*rp) != 0 && r <= pend; rp=&r->next){
  102387:	39 c1                	cmp    %eax,%ecx
  102389:	72 4f                	jb     1023da <kfree+0xaa>
    rend = (struct run*)((char*)r + r->len);
  10238b:	8b 70 04             	mov    0x4(%eax),%esi
    if(r <= p && p < rend)
  10238e:	39 c3                	cmp    %eax,%ebx

  acquire(&kalloc_lock);
  p = (struct run*)v;
  pend = (struct run*)(v + len);
  for(rp=&freelist; (r=*rp) != 0 && r <= pend; rp=&r->next){
    rend = (struct run*)((char*)r + r->len);
  102390:	8d 14 30             	lea    (%eax,%esi,1),%edx
    if(r <= p && p < rend)
  102393:	0f 83 99 00 00 00    	jae    102432 <kfree+0x102>
      panic("freeing free page");
    if(pend == r){  // p next to r: replace r with p
  102399:	39 c1                	cmp    %eax,%ecx
  10239b:	75 1d                	jne    1023ba <kfree+0x8a>
  10239d:	eb 5e                	jmp    1023fd <kfree+0xcd>
  10239f:	90                   	nop
  memset(v, 1, len);

  acquire(&kalloc_lock);
  p = (struct run*)v;
  pend = (struct run*)(v + len);
  for(rp=&freelist; (r=*rp) != 0 && r <= pend; rp=&r->next){
  1023a0:	89 c7                	mov    %eax,%edi
  1023a2:	8b 00                	mov    (%eax),%eax
  1023a4:	85 c0                	test   %eax,%eax
  1023a6:	74 38                	je     1023e0 <kfree+0xb0>
  1023a8:	39 c1                	cmp    %eax,%ecx
  1023aa:	72 34                	jb     1023e0 <kfree+0xb0>
    rend = (struct run*)((char*)r + r->len);
  1023ac:	8b 70 04             	mov    0x4(%eax),%esi
  1023af:	8d 14 30             	lea    (%eax,%esi,1),%edx
    if(r <= p && p < rend)
  1023b2:	39 d3                	cmp    %edx,%ebx
  1023b4:	72 60                	jb     102416 <kfree+0xe6>
      panic("freeing free page");
    if(pend == r){  // p next to r: replace r with p
  1023b6:	39 c1                	cmp    %eax,%ecx
  1023b8:	74 4e                	je     102408 <kfree+0xd8>
      p->len = len + r->len;
      p->next = r->next;
      *rp = p;
      goto out;
    }
    if(rend == p){  // r next to p: replace p with r
  1023ba:	39 da                	cmp    %ebx,%edx
  1023bc:	75 e2                	jne    1023a0 <kfree+0x70>
      r->len += len;
      if(r->next && r->next == pend){  // r now next to r->next?
  1023be:	8b 10                	mov    (%eax),%edx
      p->next = r->next;
      *rp = p;
      goto out;
    }
    if(rend == p){  // r next to p: replace p with r
      r->len += len;
  1023c0:	03 75 e4             	add    -0x1c(%ebp),%esi
      if(r->next && r->next == pend){  // r now next to r->next?
  1023c3:	85 d2                	test   %edx,%edx
      p->next = r->next;
      *rp = p;
      goto out;
    }
    if(rend == p){  // r next to p: replace p with r
      r->len += len;
  1023c5:	89 70 04             	mov    %esi,0x4(%eax)
      if(r->next && r->next == pend){  // r now next to r->next?
  1023c8:	74 20                	je     1023ea <kfree+0xba>
  1023ca:	39 d1                	cmp    %edx,%ecx
  1023cc:	75 1c                	jne    1023ea <kfree+0xba>
        r->len += r->next->len;
        r->next = r->next->next;
  1023ce:	8b 11                	mov    (%ecx),%edx
      goto out;
    }
    if(rend == p){  // r next to p: replace p with r
      r->len += len;
      if(r->next && r->next == pend){  // r now next to r->next?
        r->len += r->next->len;
  1023d0:	03 71 04             	add    0x4(%ecx),%esi
        r->next = r->next->next;
  1023d3:	89 10                	mov    %edx,(%eax)
      goto out;
    }
    if(rend == p){  // r next to p: replace p with r
      r->len += len;
      if(r->next && r->next == pend){  // r now next to r->next?
        r->len += r->next->len;
  1023d5:	89 70 04             	mov    %esi,0x4(%eax)
  1023d8:	eb 10                	jmp    1023ea <kfree+0xba>
  memset(v, 1, len);

  acquire(&kalloc_lock);
  p = (struct run*)v;
  pend = (struct run*)(v + len);
  for(rp=&freelist; (r=*rp) != 0 && r <= pend; rp=&r->next){
  1023da:	bf b4 aa 10 00       	mov    $0x10aab4,%edi
  1023df:	90                   	nop
      }
      goto out;
    }
  }
  // Insert p before r in list.
  p->len = len;
  1023e0:	8b 55 e4             	mov    -0x1c(%ebp),%edx
  p->next = r;
  1023e3:	89 03                	mov    %eax,(%ebx)
      }
      goto out;
    }
  }
  // Insert p before r in list.
  p->len = len;
  1023e5:	89 53 04             	mov    %edx,0x4(%ebx)
  p->next = r;
  *rp = p;
  1023e8:	89 1f                	mov    %ebx,(%edi)

 out:
  release(&kalloc_lock);
  1023ea:	c7 45 08 80 aa 10 00 	movl   $0x10aa80,0x8(%ebp)
}
  1023f1:	83 c4 2c             	add    $0x2c,%esp
  1023f4:	5b                   	pop    %ebx
  1023f5:	5e                   	pop    %esi
  1023f6:	5f                   	pop    %edi
  1023f7:	5d                   	pop    %ebp
  p->len = len;
  p->next = r;
  *rp = p;

 out:
  release(&kalloc_lock);
  1023f8:	e9 e3 1b 00 00       	jmp    103fe0 <release>
  memset(v, 1, len);

  acquire(&kalloc_lock);
  p = (struct run*)v;
  pend = (struct run*)(v + len);
  for(rp=&freelist; (r=*rp) != 0 && r <= pend; rp=&r->next){
  1023fd:	bf b4 aa 10 00       	mov    $0x10aab4,%edi
  102402:	8d b6 00 00 00 00    	lea    0x0(%esi),%esi
    rend = (struct run*)((char*)r + r->len);
    if(r <= p && p < rend)
      panic("freeing free page");
    if(pend == r){  // p next to r: replace r with p
      p->len = len + r->len;
      p->next = r->next;
  102408:	8b 00                	mov    (%eax),%eax
  for(rp=&freelist; (r=*rp) != 0 && r <= pend; rp=&r->next){
    rend = (struct run*)((char*)r + r->len);
    if(r <= p && p < rend)
      panic("freeing free page");
    if(pend == r){  // p next to r: replace r with p
      p->len = len + r->len;
  10240a:	03 75 e4             	add    -0x1c(%ebp),%esi
      p->next = r->next;
  10240d:	89 03                	mov    %eax,(%ebx)
  for(rp=&freelist; (r=*rp) != 0 && r <= pend; rp=&r->next){
    rend = (struct run*)((char*)r + r->len);
    if(r <= p && p < rend)
      panic("freeing free page");
    if(pend == r){  // p next to r: replace r with p
      p->len = len + r->len;
  10240f:	89 73 04             	mov    %esi,0x4(%ebx)
      p->next = r->next;
      *rp = p;
  102412:	89 1f                	mov    %ebx,(%edi)
      goto out;
  102414:	eb d4                	jmp    1023ea <kfree+0xba>
  acquire(&kalloc_lock);
  p = (struct run*)v;
  pend = (struct run*)(v + len);
  for(rp=&freelist; (r=*rp) != 0 && r <= pend; rp=&r->next){
    rend = (struct run*)((char*)r + r->len);
    if(r <= p && p < rend)
  102416:	39 c3                	cmp    %eax,%ebx
  102418:	72 9c                	jb     1023b6 <kfree+0x86>
      panic("freeing free page");
  10241a:	c7 04 24 06 62 10 00 	movl   $0x106206,(%esp)
  102421:	e8 da e4 ff ff       	call   100900 <panic>
kfree(char *v, int len)
{
  struct run *r, *rend, **rp, *p, *pend;

  if(len <= 0 || len % PAGE)
    panic("kfree");
  102426:	c7 04 24 00 62 10 00 	movl   $0x106200,(%esp)
  10242d:	e8 ce e4 ff ff       	call   100900 <panic>
  acquire(&kalloc_lock);
  p = (struct run*)v;
  pend = (struct run*)(v + len);
  for(rp=&freelist; (r=*rp) != 0 && r <= pend; rp=&r->next){
    rend = (struct run*)((char*)r + r->len);
    if(r <= p && p < rend)
  102432:	39 d3                	cmp    %edx,%ebx
  102434:	0f 83 5f ff ff ff    	jae    102399 <kfree+0x69>
  10243a:	eb de                	jmp    10241a <kfree+0xea>
  10243c:	8d 74 26 00          	lea    0x0(%esi,%eiz,1),%esi

00102440 <kinit>:
// This code cheats by just considering one megabyte of
// pages after _end.  Real systems would determine the
// amount of memory available in the system and use it all.
void
kinit(void)
{
  102440:	55                   	push   %ebp
  102441:	89 e5                	mov    %esp,%ebp
  102443:	83 ec 18             	sub    $0x18,%esp
  extern int end;
  uint mem;
  char *start;

  initlock(&kalloc_lock, "kalloc");
  102446:	c7 44 24 04 18 62 10 	movl   $0x106218,0x4(%esp)
  10244d:	00 
  10244e:	c7 04 24 80 aa 10 00 	movl   $0x10aa80,(%esp)
  102455:	e8 96 19 00 00       	call   103df0 <initlock>
  start = (char*) &end;
  start = (char*) (((uint)start + PAGE) & ~(PAGE-1));
  mem = 256; // assume computer has 256 pages of RAM
  cprintf("mem = %d\n", mem * PAGE);
  10245a:	c7 44 24 04 00 00 10 	movl   $0x100000,0x4(%esp)
  102461:	00 
  102462:	c7 04 24 1f 62 10 00 	movl   $0x10621f,(%esp)
  102469:	e8 e2 e0 ff ff       	call   100550 <cprintf>
  uint mem;
  char *start;

  initlock(&kalloc_lock, "kalloc");
  start = (char*) &end;
  start = (char*) (((uint)start + PAGE) & ~(PAGE-1));
  10246e:	b8 e4 ef 10 00       	mov    $0x10efe4,%eax
  102473:	25 00 f0 ff ff       	and    $0xfffff000,%eax
  mem = 256; // assume computer has 256 pages of RAM
  cprintf("mem = %d\n", mem * PAGE);
  kfree(start, mem * PAGE);
  102478:	c7 44 24 04 00 00 10 	movl   $0x100000,0x4(%esp)
  10247f:	00 
  102480:	89 04 24             	mov    %eax,(%esp)
  102483:	e8 a8 fe ff ff       	call   102330 <kfree>
}
  102488:	c9                   	leave  
  102489:	c3                   	ret    
  10248a:	8d b6 00 00 00 00    	lea    0x0(%esi),%esi

00102490 <kalloc>:
// Allocate n bytes of physical memory.
// Returns a kernel-segment pointer.
// Returns 0 if the memory cannot be allocated.
char*
kalloc(int n)
{
  102490:	55                   	push   %ebp
  102491:	89 e5                	mov    %esp,%ebp
  102493:	56                   	push   %esi
  102494:	53                   	push   %ebx
  102495:	83 ec 10             	sub    $0x10,%esp
  102498:	8b 75 08             	mov    0x8(%ebp),%esi
  char *p;
  struct run *r, **rp;

  if(n % PAGE || n <= 0)
  10249b:	f7 c6 ff 0f 00 00    	test   $0xfff,%esi
  1024a1:	0f 85 9a 00 00 00    	jne    102541 <kalloc+0xb1>
  1024a7:	85 f6                	test   %esi,%esi
  1024a9:	0f 8e 92 00 00 00    	jle    102541 <kalloc+0xb1>
    panic("kalloc");

  acquire(&kalloc_lock);
  1024af:	c7 04 24 80 aa 10 00 	movl   $0x10aa80,(%esp)
  1024b6:	e8 35 1a 00 00       	call   103ef0 <acquire>
  for(rp=&freelist; (r=*rp) != 0; rp=&r->next){
  1024bb:	8b 1d b4 aa 10 00    	mov    0x10aab4,%ebx
  1024c1:	85 db                	test   %ebx,%ebx
  1024c3:	74 3b                	je     102500 <kalloc+0x70>
    if(r->len == n){
  1024c5:	8b 43 04             	mov    0x4(%ebx),%eax
  1024c8:	39 f0                	cmp    %esi,%eax
  1024ca:	75 13                	jne    1024df <kalloc+0x4f>
  1024cc:	eb 55                	jmp    102523 <kalloc+0x93>
  1024ce:	66 90                	xchg   %ax,%ax

  if(n % PAGE || n <= 0)
    panic("kalloc");

  acquire(&kalloc_lock);
  for(rp=&freelist; (r=*rp) != 0; rp=&r->next){
  1024d0:	89 da                	mov    %ebx,%edx
  1024d2:	8b 1b                	mov    (%ebx),%ebx
  1024d4:	85 db                	test   %ebx,%ebx
  1024d6:	74 28                	je     102500 <kalloc+0x70>
    if(r->len == n){
  1024d8:	8b 43 04             	mov    0x4(%ebx),%eax
  1024db:	39 f0                	cmp    %esi,%eax
  1024dd:	74 49                	je     102528 <kalloc+0x98>
      *rp = r->next;
      release(&kalloc_lock);
      return (char*)r;
    }
    if(r->len > n){
  1024df:	39 c6                	cmp    %eax,%esi
  1024e1:	7d ed                	jge    1024d0 <kalloc+0x40>
      r->len -= n;
  1024e3:	29 f0                	sub    %esi,%eax
  1024e5:	89 43 04             	mov    %eax,0x4(%ebx)
      p = (char*)r + r->len;
  1024e8:	01 c3                	add    %eax,%ebx
      release(&kalloc_lock);
  1024ea:	c7 04 24 80 aa 10 00 	movl   $0x10aa80,(%esp)
  1024f1:	e8 ea 1a 00 00       	call   103fe0 <release>
  }
  release(&kalloc_lock);

  cprintf("kalloc: out of memory\n");
  return 0;
}
  1024f6:	83 c4 10             	add    $0x10,%esp
  1024f9:	89 d8                	mov    %ebx,%eax
  1024fb:	5b                   	pop    %ebx
  1024fc:	5e                   	pop    %esi
  1024fd:	5d                   	pop    %ebp
  1024fe:	c3                   	ret    
  1024ff:	90                   	nop
    }
  }
  release(&kalloc_lock);

  cprintf("kalloc: out of memory\n");
  return 0;
  102500:	31 db                	xor    %ebx,%ebx
      p = (char*)r + r->len;
      release(&kalloc_lock);
      return p;
    }
  }
  release(&kalloc_lock);
  102502:	c7 04 24 80 aa 10 00 	movl   $0x10aa80,(%esp)
  102509:	e8 d2 1a 00 00       	call   103fe0 <release>

  cprintf("kalloc: out of memory\n");
  10250e:	c7 04 24 29 62 10 00 	movl   $0x106229,(%esp)
  102515:	e8 36 e0 ff ff       	call   100550 <cprintf>
  return 0;
}
  10251a:	83 c4 10             	add    $0x10,%esp
  10251d:	89 d8                	mov    %ebx,%eax
  10251f:	5b                   	pop    %ebx
  102520:	5e                   	pop    %esi
  102521:	5d                   	pop    %ebp
  102522:	c3                   	ret    

  if(n % PAGE || n <= 0)
    panic("kalloc");

  acquire(&kalloc_lock);
  for(rp=&freelist; (r=*rp) != 0; rp=&r->next){
  102523:	ba b4 aa 10 00       	mov    $0x10aab4,%edx
    if(r->len == n){
      *rp = r->next;
  102528:	8b 03                	mov    (%ebx),%eax
  10252a:	89 02                	mov    %eax,(%edx)
      release(&kalloc_lock);
  10252c:	c7 04 24 80 aa 10 00 	movl   $0x10aa80,(%esp)
  102533:	e8 a8 1a 00 00       	call   103fe0 <release>
  }
  release(&kalloc_lock);

  cprintf("kalloc: out of memory\n");
  return 0;
}
  102538:	83 c4 10             	add    $0x10,%esp
  10253b:	89 d8                	mov    %ebx,%eax
  10253d:	5b                   	pop    %ebx
  10253e:	5e                   	pop    %esi
  10253f:	5d                   	pop    %ebp
  102540:	c3                   	ret    
{
  char *p;
  struct run *r, **rp;

  if(n % PAGE || n <= 0)
    panic("kalloc");
  102541:	c7 04 24 18 62 10 00 	movl   $0x106218,(%esp)
  102548:	e8 b3 e3 ff ff       	call   100900 <panic>
  10254d:	90                   	nop
  10254e:	90                   	nop
  10254f:	90                   	nop

00102550 <kbd_getc>:
#include "defs.h"
#include "kbd.h"

int
kbd_getc(void)
{
  102550:	55                   	push   %ebp
static inline uchar
inb(ushort port)
{
  uchar data;

  asm volatile("in %1,%0" : "=a" (data) : "d" (port));
  102551:	ba 64 00 00 00       	mov    $0x64,%edx
  102556:	89 e5                	mov    %esp,%ebp
  102558:	ec                   	in     (%dx),%al
  102559:	89 c2                	mov    %eax,%edx
  };
  uint st, data, c;

  st = inb(KBSTATP);
  if((st & KBS_DIB) == 0)
    return -1;
  10255b:	b8 ff ff ff ff       	mov    $0xffffffff,%eax
    normalmap, shiftmap, ctlmap, ctlmap
  };
  uint st, data, c;

  st = inb(KBSTATP);
  if((st & KBS_DIB) == 0)
  102560:	83 e2 01             	and    $0x1,%edx
  102563:	74 41                	je     1025a6 <kbd_getc+0x56>
  102565:	ba 60 00 00 00       	mov    $0x60,%edx
  10256a:	ec                   	in     (%dx),%al
    return -1;
  data = inb(KBDATAP);
  10256b:	0f b6 c0             	movzbl %al,%eax

  if(data == 0xE0){
  10256e:	3d e0 00 00 00       	cmp    $0xe0,%eax
  102573:	0f 84 7f 00 00 00    	je     1025f8 <kbd_getc+0xa8>
    shift |= E0ESC;
    return 0;
  } else if(data & 0x80){
  102579:	a8 80                	test   $0x80,%al
  10257b:	74 2b                	je     1025a8 <kbd_getc+0x58>
    // Key released
    data = (shift & E0ESC ? data : data & 0x7F);
  10257d:	8b 15 58 78 10 00    	mov    0x107858,%edx
  102583:	89 c1                	mov    %eax,%ecx
  102585:	83 e1 7f             	and    $0x7f,%ecx
  102588:	f6 c2 40             	test   $0x40,%dl
  10258b:	0f 44 c1             	cmove  %ecx,%eax
    shift &= ~(shiftcode[data] | E0ESC);
  10258e:	0f b6 80 40 62 10 00 	movzbl 0x106240(%eax),%eax
  102595:	83 c8 40             	or     $0x40,%eax
  102598:	0f b6 c0             	movzbl %al,%eax
  10259b:	f7 d0                	not    %eax
  10259d:	21 d0                	and    %edx,%eax
  10259f:	a3 58 78 10 00       	mov    %eax,0x107858
    return 0;
  1025a4:	31 c0                	xor    %eax,%eax
      c += 'A' - 'a';
    else if('A' <= c && c <= 'Z')
      c += 'a' - 'A';
  }
  return c;
}
  1025a6:	5d                   	pop    %ebp
  1025a7:	c3                   	ret    
  } else if(data & 0x80){
    // Key released
    data = (shift & E0ESC ? data : data & 0x7F);
    shift &= ~(shiftcode[data] | E0ESC);
    return 0;
  } else if(shift & E0ESC){
  1025a8:	8b 0d 58 78 10 00    	mov    0x107858,%ecx
  1025ae:	f6 c1 40             	test   $0x40,%cl
  1025b1:	74 05                	je     1025b8 <kbd_getc+0x68>
    // Last character was an E0 escape; or with 0x80
    data |= 0x80;
  1025b3:	0c 80                	or     $0x80,%al
    shift &= ~E0ESC;
  1025b5:	83 e1 bf             	and    $0xffffffbf,%ecx
  }

  shift |= shiftcode[data];
  1025b8:	0f b6 90 40 62 10 00 	movzbl 0x106240(%eax),%edx
  1025bf:	09 ca                	or     %ecx,%edx
  shift ^= togglecode[data];
  1025c1:	0f b6 88 40 63 10 00 	movzbl 0x106340(%eax),%ecx
  1025c8:	31 ca                	xor    %ecx,%edx
  c = charcode[shift & (CTL | SHIFT)][data];
  1025ca:	89 d1                	mov    %edx,%ecx
  1025cc:	83 e1 03             	and    $0x3,%ecx
  1025cf:	8b 0c 8d 40 64 10 00 	mov    0x106440(,%ecx,4),%ecx
    data |= 0x80;
    shift &= ~E0ESC;
  }

  shift |= shiftcode[data];
  shift ^= togglecode[data];
  1025d6:	89 15 58 78 10 00    	mov    %edx,0x107858
  c = charcode[shift & (CTL | SHIFT)][data];
  if(shift & CAPSLOCK){
  1025dc:	83 e2 08             	and    $0x8,%edx
    shift &= ~E0ESC;
  }

  shift |= shiftcode[data];
  shift ^= togglecode[data];
  c = charcode[shift & (CTL | SHIFT)][data];
  1025df:	0f b6 04 01          	movzbl (%ecx,%eax,1),%eax
  if(shift & CAPSLOCK){
  1025e3:	74 c1                	je     1025a6 <kbd_getc+0x56>
    if('a' <= c && c <= 'z')
  1025e5:	8d 50 9f             	lea    -0x61(%eax),%edx
  1025e8:	83 fa 19             	cmp    $0x19,%edx
  1025eb:	77 1b                	ja     102608 <kbd_getc+0xb8>
      c += 'A' - 'a';
  1025ed:	83 e8 20             	sub    $0x20,%eax
    else if('A' <= c && c <= 'Z')
      c += 'a' - 'A';
  }
  return c;
}
  1025f0:	5d                   	pop    %ebp
  1025f1:	c3                   	ret    
  1025f2:	8d b6 00 00 00 00    	lea    0x0(%esi),%esi
    return -1;
  data = inb(KBDATAP);

  if(data == 0xE0){
    shift |= E0ESC;
    return 0;
  1025f8:	30 c0                	xor    %al,%al
  if((st & KBS_DIB) == 0)
    return -1;
  data = inb(KBDATAP);

  if(data == 0xE0){
    shift |= E0ESC;
  1025fa:	83 0d 58 78 10 00 40 	orl    $0x40,0x107858
      c += 'A' - 'a';
    else if('A' <= c && c <= 'Z')
      c += 'a' - 'A';
  }
  return c;
}
  102601:	5d                   	pop    %ebp
  102602:	c3                   	ret    
  102603:	90                   	nop
  102604:	8d 74 26 00          	lea    0x0(%esi,%eiz,1),%esi
  shift ^= togglecode[data];
  c = charcode[shift & (CTL | SHIFT)][data];
  if(shift & CAPSLOCK){
    if('a' <= c && c <= 'z')
      c += 'A' - 'a';
    else if('A' <= c && c <= 'Z')
  102608:	8d 48 bf             	lea    -0x41(%eax),%ecx
      c += 'a' - 'A';
  10260b:	8d 50 20             	lea    0x20(%eax),%edx
  10260e:	83 f9 19             	cmp    $0x19,%ecx
  102611:	0f 46 c2             	cmovbe %edx,%eax
  }
  return c;
}
  102614:	5d                   	pop    %ebp
  102615:	c3                   	ret    
  102616:	8d 76 00             	lea    0x0(%esi),%esi
  102619:	8d bc 27 00 00 00 00 	lea    0x0(%edi,%eiz,1),%edi

00102620 <kbd_intr>:

void
kbd_intr(void)
{
  102620:	55                   	push   %ebp
  102621:	89 e5                	mov    %esp,%ebp
  102623:	83 ec 18             	sub    $0x18,%esp
  console_intr(kbd_getc);
  102626:	c7 04 24 50 25 10 00 	movl   $0x102550,(%esp)
  10262d:	e8 ce e0 ff ff       	call   100700 <console_intr>
}
  102632:	c9                   	leave  
  102633:	c3                   	ret    
  102634:	90                   	nop
  102635:	90                   	nop
  102636:	90                   	nop
  102637:	90                   	nop
  102638:	90                   	nop
  102639:	90                   	nop
  10263a:	90                   	nop
  10263b:	90                   	nop
  10263c:	90                   	nop
  10263d:	90                   	nop
  10263e:	90                   	nop
  10263f:	90                   	nop

00102640 <microdelay>:

// Spin for a given number of microseconds.
// On real hardware would want to tune this dynamically.
static void
microdelay(int us)
{
  102640:	55                   	push   %ebp
  102641:	89 e5                	mov    %esp,%ebp
  102643:	83 ec 10             	sub    $0x10,%esp
  volatile int j = 0;
  
  while(us-- > 0)
  102646:	85 c0                	test   %eax,%eax
// Spin for a given number of microseconds.
// On real hardware would want to tune this dynamically.
static void
microdelay(int us)
{
  volatile int j = 0;
  102648:	c7 45 fc 00 00 00 00 	movl   $0x0,-0x4(%ebp)
  
  while(us-- > 0)
  10264f:	7e 3a                	jle    10268b <microdelay+0x4b>
  102651:	8d b4 26 00 00 00 00 	lea    0x0(%esi,%eiz,1),%esi
    for(j=0; j<10000; j++);
  102658:	c7 45 fc 00 00 00 00 	movl   $0x0,-0x4(%ebp)
  10265f:	8b 55 fc             	mov    -0x4(%ebp),%edx
  102662:	81 fa 0f 27 00 00    	cmp    $0x270f,%edx
  102668:	7f 1a                	jg     102684 <microdelay+0x44>
  10266a:	8d b6 00 00 00 00    	lea    0x0(%esi),%esi
  102670:	8b 55 fc             	mov    -0x4(%ebp),%edx
  102673:	83 c2 01             	add    $0x1,%edx
  102676:	89 55 fc             	mov    %edx,-0x4(%ebp)
  102679:	8b 55 fc             	mov    -0x4(%ebp),%edx
  10267c:	81 fa 0f 27 00 00    	cmp    $0x270f,%edx
  102682:	7e ec                	jle    102670 <microdelay+0x30>
  102684:	83 e8 01             	sub    $0x1,%eax
static void
microdelay(int us)
{
  volatile int j = 0;
  
  while(us-- > 0)
  102687:	85 c0                	test   %eax,%eax
  102689:	7f cd                	jg     102658 <microdelay+0x18>
    for(j=0; j<10000; j++);
}
  10268b:	c9                   	leave  
  10268c:	c3                   	ret    
  10268d:	8d 76 00             	lea    0x0(%esi),%esi

00102690 <lapic_init>:
}

void
lapic_init(int c)
{
  if(!lapic) 
  102690:	a1 b8 aa 10 00       	mov    0x10aab8,%eax
  lapic[ID];  // wait for write to finish, by reading
}

void
lapic_init(int c)
{
  102695:	55                   	push   %ebp
  102696:	89 e5                	mov    %esp,%ebp
  if(!lapic) 
  102698:	85 c0                	test   %eax,%eax
  10269a:	0f 84 c4 00 00 00    	je     102764 <lapic_init+0xd4>
volatile uint *lapic;  // Initialized in mp.c

static void
lapicw(int index, int value)
{
  lapic[index] = value;
  1026a0:	c7 80 f0 00 00 00 3f 	movl   $0x13f,0xf0(%eax)
  1026a7:	01 00 00 
  lapic[ID];  // wait for write to finish, by reading
  1026aa:	8b 50 20             	mov    0x20(%eax),%edx
volatile uint *lapic;  // Initialized in mp.c

static void
lapicw(int index, int value)
{
  lapic[index] = value;
  1026ad:	c7 80 e0 03 00 00 0b 	movl   $0xb,0x3e0(%eax)
  1026b4:	00 00 00 
  lapic[ID];  // wait for write to finish, by reading
  1026b7:	8b 50 20             	mov    0x20(%eax),%edx
volatile uint *lapic;  // Initialized in mp.c

static void
lapicw(int index, int value)
{
  lapic[index] = value;
  1026ba:	c7 80 20 03 00 00 20 	movl   $0x20020,0x320(%eax)
  1026c1:	00 02 00 
  lapic[ID];  // wait for write to finish, by reading
  1026c4:	8b 50 20             	mov    0x20(%eax),%edx
volatile uint *lapic;  // Initialized in mp.c

static void
lapicw(int index, int value)
{
  lapic[index] = value;
  1026c7:	c7 80 80 03 00 00 80 	movl   $0x989680,0x380(%eax)
  1026ce:	96 98 00 
  lapic[ID];  // wait for write to finish, by reading
  1026d1:	8b 50 20             	mov    0x20(%eax),%edx
volatile uint *lapic;  // Initialized in mp.c

static void
lapicw(int index, int value)
{
  lapic[index] = value;
  1026d4:	c7 80 50 03 00 00 00 	movl   $0x10000,0x350(%eax)
  1026db:	00 01 00 
  lapic[ID];  // wait for write to finish, by reading
  1026de:	8b 50 20             	mov    0x20(%eax),%edx
volatile uint *lapic;  // Initialized in mp.c

static void
lapicw(int index, int value)
{
  lapic[index] = value;
  1026e1:	c7 80 60 03 00 00 00 	movl   $0x10000,0x360(%eax)
  1026e8:	00 01 00 
  lapic[ID];  // wait for write to finish, by reading
  1026eb:	8b 50 20             	mov    0x20(%eax),%edx
  lapicw(LINT0, MASKED);
  lapicw(LINT1, MASKED);

  // Disable performance counter overflow interrupts
  // on machines that provide that interrupt entry.
  if(((lapic[VER]>>16) & 0xFF) >= 4)
  1026ee:	8b 50 30             	mov    0x30(%eax),%edx
  1026f1:	c1 ea 10             	shr    $0x10,%edx
  1026f4:	80 fa 03             	cmp    $0x3,%dl
  1026f7:	77 6f                	ja     102768 <lapic_init+0xd8>
volatile uint *lapic;  // Initialized in mp.c

static void
lapicw(int index, int value)
{
  lapic[index] = value;
  1026f9:	c7 80 70 03 00 00 33 	movl   $0x33,0x370(%eax)
  102700:	00 00 00 
  lapic[ID];  // wait for write to finish, by reading
  102703:	8b 50 20             	mov    0x20(%eax),%edx
volatile uint *lapic;  // Initialized in mp.c

static void
lapicw(int index, int value)
{
  lapic[index] = value;
  102706:	8d 88 00 03 00 00    	lea    0x300(%eax),%ecx
  10270c:	c7 80 80 02 00 00 00 	movl   $0x0,0x280(%eax)
  102713:	00 00 00 
  lapic[ID];  // wait for write to finish, by reading
  102716:	8b 50 20             	mov    0x20(%eax),%edx
volatile uint *lapic;  // Initialized in mp.c

static void
lapicw(int index, int value)
{
  lapic[index] = value;
  102719:	c7 80 80 02 00 00 00 	movl   $0x0,0x280(%eax)
  102720:	00 00 00 
  lapic[ID];  // wait for write to finish, by reading
  102723:	8b 50 20             	mov    0x20(%eax),%edx
volatile uint *lapic;  // Initialized in mp.c

static void
lapicw(int index, int value)
{
  lapic[index] = value;
  102726:	c7 80 b0 00 00 00 00 	movl   $0x0,0xb0(%eax)
  10272d:	00 00 00 
  lapic[ID];  // wait for write to finish, by reading
  102730:	8b 50 20             	mov    0x20(%eax),%edx
volatile uint *lapic;  // Initialized in mp.c

static void
lapicw(int index, int value)
{
  lapic[index] = value;
  102733:	c7 80 10 03 00 00 00 	movl   $0x0,0x310(%eax)
  10273a:	00 00 00 
  lapic[ID];  // wait for write to finish, by reading
  10273d:	8b 50 20             	mov    0x20(%eax),%edx
volatile uint *lapic;  // Initialized in mp.c

static void
lapicw(int index, int value)
{
  lapic[index] = value;
  102740:	c7 80 00 03 00 00 00 	movl   $0x88500,0x300(%eax)
  102747:	85 08 00 
  lapic[ID];  // wait for write to finish, by reading
  10274a:	8b 50 20             	mov    0x20(%eax),%edx
  10274d:	8d 76 00             	lea    0x0(%esi),%esi
  lapicw(EOI, 0);

  // Send an Init Level De-Assert to synchronise arbitration ID's.
  lapicw(ICRHI, 0);
  lapicw(ICRLO, BCAST | INIT | LEVEL);
  while(lapic[ICRLO] & DELIVS)
  102750:	8b 11                	mov    (%ecx),%edx
  102752:	80 e6 10             	and    $0x10,%dh
  102755:	75 f9                	jne    102750 <lapic_init+0xc0>
volatile uint *lapic;  // Initialized in mp.c

static void
lapicw(int index, int value)
{
  lapic[index] = value;
  102757:	c7 80 80 00 00 00 00 	movl   $0x0,0x80(%eax)
  10275e:	00 00 00 
  lapic[ID];  // wait for write to finish, by reading
  102761:	8b 40 20             	mov    0x20(%eax),%eax
  while(lapic[ICRLO] & DELIVS)
    ;

  // Enable interrupts on the APIC (but not on the processor).
  lapicw(TPR, 0);
}
  102764:	5d                   	pop    %ebp
  102765:	c3                   	ret    
  102766:	66 90                	xchg   %ax,%ax
volatile uint *lapic;  // Initialized in mp.c

static void
lapicw(int index, int value)
{
  lapic[index] = value;
  102768:	c7 80 40 03 00 00 00 	movl   $0x10000,0x340(%eax)
  10276f:	00 01 00 
  lapic[ID];  // wait for write to finish, by reading
  102772:	8b 50 20             	mov    0x20(%eax),%edx
  102775:	eb 82                	jmp    1026f9 <lapic_init+0x69>
  102777:	89 f6                	mov    %esi,%esi
  102779:	8d bc 27 00 00 00 00 	lea    0x0(%edi,%eiz,1),%edi

00102780 <cpu>:
  lapicw(TPR, 0);
}

int
cpu(void)
{
  102780:	55                   	push   %ebp
  102781:	89 e5                	mov    %esp,%ebp
  102783:	83 ec 18             	sub    $0x18,%esp

static inline uint
read_eflags(void)
{
  uint eflags;
  asm volatile("pushfl; popl %0" : "=r" (eflags));
  102786:	9c                   	pushf  
  102787:	58                   	pop    %eax
  // Cannot call cpu when interrupts are enabled:
  // result not guaranteed to last long enough to be used!
  // Would prefer to panic but even printing is chancy here:
  // everything, including cprintf, calls cpu, at least indirectly
  // through acquire and release.
  if(read_eflags()&FL_IF){
  102788:	f6 c4 02             	test   $0x2,%ah
  10278b:	74 12                	je     10279f <cpu+0x1f>
    static int n;
    if(n++ == 0)
  10278d:	a1 5c 78 10 00       	mov    0x10785c,%eax
  102792:	8d 50 01             	lea    0x1(%eax),%edx
  102795:	85 c0                	test   %eax,%eax
  102797:	89 15 5c 78 10 00    	mov    %edx,0x10785c
  10279d:	74 19                	je     1027b8 <cpu+0x38>
      cprintf("cpu called from %x with interrupts enabled\n",
        ((uint*)read_ebp())[1]);
  }

  if(lapic)
  10279f:	8b 15 b8 aa 10 00    	mov    0x10aab8,%edx
    return lapic[ID]>>24;
  return 0;
  1027a5:	31 c0                	xor    %eax,%eax
    if(n++ == 0)
      cprintf("cpu called from %x with interrupts enabled\n",
        ((uint*)read_ebp())[1]);
  }

  if(lapic)
  1027a7:	85 d2                	test   %edx,%edx
  1027a9:	74 06                	je     1027b1 <cpu+0x31>
    return lapic[ID]>>24;
  1027ab:	8b 42 20             	mov    0x20(%edx),%eax
  1027ae:	c1 e8 18             	shr    $0x18,%eax
  return 0;
}
  1027b1:	c9                   	leave  
  1027b2:	c3                   	ret    
  1027b3:	90                   	nop
  1027b4:	8d 74 26 00          	lea    0x0(%esi,%eiz,1),%esi
static inline uint
read_ebp(void)
{
  uint ebp;
  
  asm volatile("movl %%ebp, %0" : "=a" (ebp));
  1027b8:	89 e8                	mov    %ebp,%eax
  // everything, including cprintf, calls cpu, at least indirectly
  // through acquire and release.
  if(read_eflags()&FL_IF){
    static int n;
    if(n++ == 0)
      cprintf("cpu called from %x with interrupts enabled\n",
  1027ba:	8b 40 04             	mov    0x4(%eax),%eax
  1027bd:	c7 04 24 50 64 10 00 	movl   $0x106450,(%esp)
  1027c4:	89 44 24 04          	mov    %eax,0x4(%esp)
  1027c8:	e8 83 dd ff ff       	call   100550 <cprintf>
  1027cd:	eb d0                	jmp    10279f <cpu+0x1f>
  1027cf:	90                   	nop

001027d0 <lapic_eoi>:

// Acknowledge interrupt.
void
lapic_eoi(void)
{
  if(lapic)
  1027d0:	a1 b8 aa 10 00       	mov    0x10aab8,%eax
}

// Acknowledge interrupt.
void
lapic_eoi(void)
{
  1027d5:	55                   	push   %ebp
  1027d6:	89 e5                	mov    %esp,%ebp
  if(lapic)
  1027d8:	85 c0                	test   %eax,%eax
  1027da:	74 0d                	je     1027e9 <lapic_eoi+0x19>
volatile uint *lapic;  // Initialized in mp.c

static void
lapicw(int index, int value)
{
  lapic[index] = value;
  1027dc:	c7 80 b0 00 00 00 00 	movl   $0x0,0xb0(%eax)
  1027e3:	00 00 00 
  lapic[ID];  // wait for write to finish, by reading
  1027e6:	8b 40 20             	mov    0x20(%eax),%eax
void
lapic_eoi(void)
{
  if(lapic)
    lapicw(EOI, 0);
}
  1027e9:	5d                   	pop    %ebp
  1027ea:	c3                   	ret    
  1027eb:	90                   	nop
  1027ec:	8d 74 26 00          	lea    0x0(%esi,%eiz,1),%esi

001027f0 <lapic_startap>:

// Start additional processor running bootstrap code at addr.
// See Appendix B of MultiProcessor Specification.
void
lapic_startap(uchar apicid, uint addr)
{
  1027f0:	55                   	push   %ebp
}

static inline void
outb(ushort port, uchar data)
{
  asm volatile("out %0,%1" : : "a" (data), "d" (port));
  1027f1:	ba 70 00 00 00       	mov    $0x70,%edx
  1027f6:	89 e5                	mov    %esp,%ebp
  1027f8:	b8 0f 00 00 00       	mov    $0xf,%eax
  1027fd:	56                   	push   %esi
  1027fe:	0f b6 4d 08          	movzbl 0x8(%ebp),%ecx
  102802:	53                   	push   %ebx
  102803:	8b 5d 0c             	mov    0xc(%ebp),%ebx
